(lp0
(lp1
(I90
F0.009688557178173641
tp2
a(I129
F0.009785272304688244
tp3
a(I175
F0.010278173226970125
tp4
aa(lp5
(I657
F0.24033134090277358
tp6
a(I658
F0.26608032538563187
tp7
a(I679
F0.23892895769229985
tp8
a(I680
F0.26710655616219475
tp9
a(I682
F0.2614710364682159
tp10
a(I683
F0.251968440491484
tp11
a(I702
F0.27785929027802425
tp12
a(I703
F0.29339072373841546
tp13
a(I704
F0.3153628454356706
tp14
a(I705
F0.32261407055647195
tp15
a(I706
F0.27770334538529345
tp16
a(I707
F0.27442967333383433
tp17
a(I724
F0.2462757735130403
tp18
a(I725
F0.26909188953193497
tp19
a(I726
F0.2736551127357141
tp20
a(I727
F0.2660554426597259
tp21
a(I745
F0.25035111423891027
tp22
a(I746
F0.2528595593292443
tp23
a(I789
F0.25395994213042283
tp24
aa(lp25
(I547
F0.2653377722885914
tp26
a(I572
F0.3116390693348622
tp27
a(I573
F0.3072105810319912
tp28
a(I574
F0.25817689383055165
tp29
a(I595
F0.30034158628095176
tp30
a(I596
F0.3256868678236483
tp31
a(I597
F0.32616922723238884
tp32
a(I613
F0.317583102965046
tp33
a(I614
F0.3568380976328502
tp34
a(I615
F0.3150984889779704
tp35
a(I616
F0.2600625911927134
tp36
a(I635
F0.2891790115619581
tp37
a(I637
F0.28837439899811596
tp38
a(I638
F0.27852116930286597
tp39
a(I639
F0.2676250599656391
tp40
a(I640
F0.263674023209482
tp41
a(I657
F0.29415971246035066
tp42
a(I658
F0.27285988192069505
tp43
a(I659
F0.25738350430209805
tp44
aa(lp45
(I723
F0.22265552722203913
tp46
a(I724
F0.22583604509855512
tp47
a(I726
F0.22915645634403567
tp48
a(I728
F0.21646719875639717
tp49
a(I729
F0.2545349715193128
tp50
a(I745
F0.25504011022951906
tp51
a(I746
F0.28863767183275346
tp52
a(I747
F0.3119204453475384
tp53
a(I748
F0.29288543188209437
tp54
a(I749
F0.2450434317126412
tp55
a(I750
F0.250478205560857
tp56
a(I751
F0.2411149186476716
tp57
a(I767
F0.23625868500486144
tp58
a(I772
F0.2215263413474473
tp59
a(I773
F0.24072141571480746
tp60
a(I789
F0.21607236611671046
tp61
a(I790
F0.21967946560281298
tp62
a(I791
F0.2225267176293567
tp63
a(I792
F0.22611690218018285
tp64
aa(lp65
(I85
F0.5119232856480943
tp66
a(I86
F0.5069549179535594
tp67
a(I87
F0.509057551076733
tp68
a(I88
F0.523891639334942
tp69
a(I89
F0.5107485411131281
tp70
a(I90
F0.512133205360131
tp71
a(I91
F0.5080024281064591
tp72
a(I107
F0.48754394037035803
tp73
a(I108
F0.493922150953958
tp74
a(I109
F0.49336541647313537
tp75
a(I110
F0.4777168082429996
tp76
a(I111
F0.4984279736834348
tp77
a(I112
F0.49111828969531984
tp78
a(I113
F0.4890861489619238
tp79
a(I129
F0.44527313776898353
tp80
a(I130
F0.43527416057076956
tp81
a(I131
F0.44412648527712745
tp82
a(I132
F0.44967667400449574
tp83
a(I133
F0.4376701214258888
tp84
aa(lp85
(I85
F0.26481800019691293
tp86
a(I86
F0.2676012823936386
tp87
a(I87
F0.26212836948305285
tp88
a(I88
F0.25272791180469323
tp89
a(I89
F0.24740043405472753
tp90
a(I90
F0.23476438166786912
tp91
a(I91
F0.22867205998410567
tp92
a(I109
F0.2334073832495944
tp93
a(I110
F0.2400270968693375
tp94
a(I111
F0.24835260597555003
tp95
a(I112
F0.2522240736561539
tp96
a(I113
F0.2511224806619221
tp97
a(I833
F0.25322349162291674
tp98
a(I834
F0.25031720091683507
tp99
a(I835
F0.24542657779719693
tp100
a(I836
F0.2400243720198617
tp101
a(I837
F0.2403126207781433
tp102
a(I838
F0.23846247840374207
tp103
a(I839
F0.23770659279367115
tp104
aa(lp105
(I129
F0.26377510126981946
tp106
a(I155
F0.2933795790252724
tp107
a(I156
F0.31932243371471436
tp108
a(I157
F0.33023143927574083
tp109
a(I657
F0.3667462324608758
tp110
a(I658
F0.3599058021656827
tp111
a(I659
F0.3575274105954411
tp112
a(I660
F0.3598491936205865
tp113
a(I661
F0.365567119576719
tp114
a(I662
F0.3640067242346011
tp115
a(I663
F0.3600902412578886
tp116
a(I701
F0.3244436451307601
tp117
a(I702
F0.30733161818493665
tp118
a(I703
F0.2803573551517058
tp119
a(I725
F0.2677322371072098
tp120
a(I726
F0.31693008591312505
tp121
a(I727
F0.3528868459167609
tp122
a(I728
F0.3675102844803808
tp123
a(I729
F0.35620173034957153
tp124
aa(lp125
(I399
F0.29210662003805793
tp126
a(I437
F0.2793777608708042
tp127
a(I438
F0.270822766162341
tp128
a(I439
F0.24922426108516463
tp129
a(I481
F0.2976867250923181
tp130
a(I482
F0.26320405419829496
tp131
a(I503
F0.30677177267685857
tp132
a(I504
F0.33443708922319826
tp133
a(I505
F0.35850406571252513
tp134
a(I506
F0.368147533938782
tp135
a(I507
F0.36395860561600407
tp136
a(I508
F0.3496980904563442
tp137
a(I509
F0.3276327219635502
tp138
a(I530
F0.2584258387272236
tp139
a(I531
F0.302516233260429
tp140
a(I594
F0.2578705544841083
tp141
a(I595
F0.26932852412551334
tp142
a(I596
F0.27294621201720626
tp143
a(I597
F0.2645083167544489
tp144
aa(lp145
(I85
F0.39453958438807196
tp146
a(I112
F0.36431110405181744
tp147
a(I723
F0.5057485437432637
tp148
a(I724
F0.4801048678713135
tp149
a(I725
F0.44178932611608884
tp150
a(I726
F0.39752064749420296
tp151
a(I745
F0.4201790488004758
tp152
a(I746
F0.41530082761544196
tp153
a(I747
F0.4085128205893586
tp154
a(I748
F0.4041609317629191
tp155
a(I749
F0.4016725470462035
tp156
a(I750
F0.3971542831703877
tp157
a(I751
F0.3848257152449705
tp158
a(I767
F0.3702526900919956
tp159
a(I768
F0.38708221694543316
tp160
a(I769
F0.38888680816313614
tp161
a(I770
F0.3780853117262763
tp162
a(I816
F0.3628677944522867
tp163
a(I817
F0.3691471556465554
tp164
aa(lp165
(I773
F0.47076974561041823
tp166
a(I791
F0.46248064986980086
tp167
a(I792
F0.4892480029332346
tp168
a(I793
F0.49586644053275475
tp169
a(I794
F0.48213768084917813
tp170
a(I795
F0.45753701956550635
tp171
a(I811
F0.5416933125303357
tp172
a(I812
F0.5441181063039303
tp173
a(I813
F0.5263091441479788
tp174
a(I814
F0.49245778304021537
tp175
a(I815
F0.4556331718683615
tp176
a(I816
F0.43280265467988344
tp177
a(I833
F0.5609849343206972
tp178
a(I834
F0.5568779023371511
tp179
a(I835
F0.5466509753285803
tp180
a(I836
F0.538831185577919
tp181
a(I837
F0.5231120086112391
tp182
a(I838
F0.4970477938291023
tp183
a(I839
F0.4519793775597285
tp184
aa(lp185
(I701
F0.3677233675242717
tp186
a(I702
F0.35032801709309463
tp187
a(I703
F0.332714303400232
tp188
a(I723
F0.4720877862845489
tp189
a(I724
F0.4638078958411856
tp190
a(I725
F0.449916721313952
tp191
a(I726
F0.4318179527292831
tp192
a(I727
F0.40666279252085036
tp193
a(I728
F0.3680185186563969
tp194
a(I745
F0.4460776313406167
tp195
a(I746
F0.4361834478162902
tp196
a(I747
F0.4158016296912773
tp197
a(I748
F0.39331831318330746
tp198
a(I749
F0.3740616633111177
tp199
a(I750
F0.35085076293027456
tp200
a(I751
F0.33648536854637984
tp201
a(I768
F0.33077252260990314
tp202
a(I769
F0.33838001991828753
tp203
a(I770
F0.33548301988882895
tp204
aa(lp205
(I637
F0.2803038776867757
tp206
a(I638
F0.30805228688364333
tp207
a(I639
F0.33304977897294524
tp208
a(I640
F0.3592465349714673
tp209
a(I641
F0.37611978480459307
tp210
a(I726
F0.2909331157605612
tp211
a(I727
F0.308899342592322
tp212
a(I728
F0.3230861818610049
tp213
a(I729
F0.3342637632523234
tp214
a(I812
F0.3165122821886827
tp215
a(I813
F0.37876599184612786
tp216
a(I814
F0.4124089155200053
tp217
a(I815
F0.4057065461983709
tp218
a(I816
F0.37263670100260493
tp219
a(I817
F0.32006544659688313
tp220
a(I833
F0.26638337404529977
tp221
a(I837
F0.28895682192808697
tp222
a(I838
F0.3236271512071771
tp223
a(I839
F0.3394263906266684
tp224
aa(lp225
(I195
F0.2821804690100262
tp226
a(I196
F0.2631134347369381
tp227
a(I197
F0.23859224366971105
tp228
a(I198
F0.2024401446807213
tp229
a(I199
F0.15178770495450367
tp230
a(I551
F0.1327401160437657
tp231
a(I552
F0.16686301164557182
tp232
a(I553
F0.1918796394136165
tp233
a(I575
F0.09614117802753201
tp234
a(I619
F0.10989325557504588
tp235
a(I704
F0.09680565997784953
tp236
a(I705
F0.11385954936177148
tp237
a(I706
F0.11736813764940571
tp238
a(I707
F0.10603054139278993
tp239
a(I729
F0.13904157099855535
tp240
a(I749
F0.10775787126273008
tp241
a(I750
F0.14043138303064884
tp242
a(I751
F0.1743712645604293
tp243
a(I773
F0.10767685694777358
tp244
aa(lp245
(I110
F0.16570301606211982
tp246
a(I723
F0.19389148268935466
tp247
a(I724
F0.22935468593055383
tp248
a(I725
F0.2522493263329225
tp249
a(I726
F0.2471311458015041
tp250
a(I727
F0.21422336992880528
tp251
a(I728
F0.18788359580085812
tp252
a(I745
F0.25091155945876853
tp253
a(I746
F0.24055944325500933
tp254
a(I747
F0.2279107250109919
tp255
a(I748
F0.221948089925255
tp256
a(I749
F0.22881571684346502
tp257
a(I750
F0.22986410164593513
tp258
a(I751
F0.20811975791024553
tp259
a(I769
F0.16401917655296144
tp260
a(I770
F0.17191133048767995
tp261
a(I771
F0.17488562475139757
tp262
a(I772
F0.1919191372087169
tp263
a(I773
F0.2133545829372399
tp264
aa(lp265
(I749
F0.5472599844115549
tp266
a(I750
F0.5513951598084825
tp267
a(I751
F0.5581506083983013
tp268
a(I767
F0.5524758259015645
tp269
a(I768
F0.5543146113962958
tp270
a(I769
F0.5540478752697144
tp271
a(I770
F0.5631817090856147
tp272
a(I771
F0.576340270943947
tp273
a(I772
F0.5801849364853006
tp274
a(I773
F0.5943230561452686
tp275
a(I789
F0.5987568098754418
tp276
a(I790
F0.6095225518534951
tp277
a(I791
F0.6157857199842257
tp278
a(I792
F0.6229094035329739
tp279
a(I793
F0.6287970082201919
tp280
a(I794
F0.6331343938192359
tp281
a(I795
F0.6354958435964057
tp282
a(I811
F0.5429825472349509
tp283
a(I812
F0.5397321133707857
tp284
aa(lp285
(I701
F0.8575280963041593
tp286
a(I702
F0.8662501738861924
tp287
a(I703
F0.8621103099901009
tp288
a(I704
F0.8635808393650587
tp289
a(I705
F0.8627282253547114
tp290
a(I706
F0.8529739510678646
tp291
a(I707
F0.8451580123991637
tp292
a(I723
F0.877258583092546
tp293
a(I724
F0.8787203278595378
tp294
a(I725
F0.8833136033614043
tp295
a(I726
F0.885813256214739
tp296
a(I727
F0.8889600251623918
tp297
a(I728
F0.887386234439538
tp298
a(I729
F0.8871024783502306
tp299
a(I747
F0.8486997923216631
tp300
a(I748
F0.8589746895143222
tp301
a(I749
F0.8649098281055434
tp302
a(I750
F0.8662536455621899
tp303
a(I751
F0.8607459042372881
tp304
aa(lp305
(I679
F0.8396713275935863
tp306
a(I680
F0.838488315243613
tp307
a(I681
F0.8346479474206541
tp308
a(I682
F0.8330350619780481
tp309
a(I683
F0.8320017394385687
tp310
a(I701
F0.8678536226188183
tp311
a(I702
F0.8745664249623484
tp312
a(I703
F0.8729261168634058
tp313
a(I704
F0.8774771869545491
tp314
a(I705
F0.872290157983865
tp315
a(I706
F0.8677246988170518
tp316
a(I707
F0.8658921358732993
tp317
a(I723
F0.8530619630684596
tp318
a(I724
F0.8581631079252633
tp319
a(I725
F0.856435479749384
tp320
a(I726
F0.8572243149255302
tp321
a(I727
F0.852803402626965
tp322
a(I728
F0.8536964950496132
tp323
a(I729
F0.8465307548331971
tp324
aa(lp325
(I684
F0.49381110655754357
tp326
a(I685
F0.49579585587237013
tp327
a(I701
F0.5463941615176188
tp328
a(I702
F0.55157199437938
tp329
a(I703
F0.5744873626091788
tp330
a(I704
F0.5867446352865195
tp331
a(I705
F0.603713043664424
tp332
a(I706
F0.6153817855090535
tp333
a(I707
F0.6285915803539488
tp334
a(I723
F0.634986377023753
tp335
a(I724
F0.6223545720172687
tp336
a(I725
F0.6104245339555894
tp337
a(I726
F0.6249990010340323
tp338
a(I727
F0.6221847466203708
tp339
a(I728
F0.6283504357768863
tp340
a(I729
F0.6451842684489798
tp341
a(I745
F0.5354511644519222
tp342
a(I746
F0.5203636788061992
tp343
a(I747
F0.5016839346733996
tp344
aa(lp345
(I745
F0.6974625430487396
tp346
a(I746
F0.7035267169932942
tp347
a(I747
F0.6923456327431824
tp348
a(I748
F0.6825564869521216
tp349
a(I749
F0.687725752654799
tp350
a(I767
F0.7274777666391724
tp351
a(I768
F0.726694548370224
tp352
a(I769
F0.7219855325414085
tp353
a(I770
F0.7339443783350625
tp354
a(I771
F0.7237283185507315
tp355
a(I772
F0.7210609657739459
tp356
a(I773
F0.7175347643130843
tp357
a(I789
F0.7230399856617532
tp358
a(I790
F0.723691086242563
tp359
a(I791
F0.7284371954528747
tp360
a(I792
F0.728733810170723
tp361
a(I793
F0.7280584445066446
tp362
a(I794
F0.7227694432290962
tp363
a(I795
F0.7114035137503382
tp364
aa(lp365
(I701
F0.840500343397545
tp366
a(I702
F0.8452622651016333
tp367
a(I703
F0.8416026489795065
tp368
a(I704
F0.8449966085908825
tp369
a(I705
F0.8493342486445009
tp370
a(I706
F0.8538473217636112
tp371
a(I707
F0.8629621727780236
tp372
a(I723
F0.8898963440359137
tp373
a(I724
F0.8870863371180409
tp374
a(I725
F0.8877904508415797
tp375
a(I726
F0.8926367632780404
tp376
a(I727
F0.8841589578782658
tp377
a(I728
F0.8857855895079615
tp378
a(I729
F0.8879065148899731
tp379
a(I745
F0.8486406816600541
tp380
a(I746
F0.8444482239016597
tp381
a(I747
F0.8381133447563217
tp382
a(I748
F0.8345654572318373
tp383
a(I749
F0.8334121781844608
tp384
aa(lp385
(I683
F0.8323937896231287
tp386
a(I684
F0.8334564853231281
tp387
a(I685
F0.8434229759032359
tp388
a(I701
F0.8826239083477604
tp389
a(I702
F0.879335352397221
tp390
a(I703
F0.8888845325459542
tp391
a(I704
F0.8888903587846153
tp392
a(I705
F0.8793573264714539
tp393
a(I706
F0.8846639526940033
tp394
a(I707
F0.8959397217796735
tp395
a(I723
F0.8886862991273221
tp396
a(I724
F0.8894643087255828
tp397
a(I725
F0.8846722444631576
tp398
a(I726
F0.8770702026189009
tp399
a(I727
F0.8879196893014342
tp400
a(I728
F0.8896020688561461
tp401
a(I729
F0.8803039023779754
tp402
a(I745
F0.8377697520494088
tp403
a(I746
F0.837076313818502
tp404
aa(lp405
(I657
F0.6319338953415723
tp406
a(I658
F0.6357816897480341
tp407
a(I660
F0.6292994379779567
tp408
a(I661
F0.6300219987303892
tp409
a(I662
F0.6328014950047434
tp410
a(I679
F0.6414653681105683
tp411
a(I680
F0.6518925430103012
tp412
a(I681
F0.6499504891389871
tp413
a(I682
F0.6436534335732239
tp414
a(I683
F0.6383120428964401
tp415
a(I684
F0.6486771480416846
tp416
a(I685
F0.6509051589853991
tp417
a(I701
F0.6611772852759175
tp418
a(I702
F0.6444131238258165
tp419
a(I703
F0.6635521354313361
tp420
a(I704
F0.6660134100471137
tp421
a(I705
F0.658472313134165
tp422
a(I706
F0.6564941747029186
tp423
a(I707
F0.6522363821269865
tp424
aa(lp425
(I790
F0.21522657639234322
tp426
a(I792
F0.21459302469443708
tp427
a(I793
F0.21535180989418787
tp428
a(I794
F0.2184652999320771
tp429
a(I795
F0.21639351744631316
tp430
a(I811
F0.22637488756292523
tp431
a(I812
F0.22592547541479482
tp432
a(I813
F0.22278544940610545
tp433
a(I814
F0.22323345531719643
tp434
a(I815
F0.22502338660953283
tp435
a(I816
F0.2268138077688129
tp436
a(I817
F0.2299987474204751
tp437
a(I833
F0.23537550920613798
tp438
a(I834
F0.22893408215509092
tp439
a(I835
F0.23334058348948436
tp440
a(I836
F0.23335419873226507
tp441
a(I837
F0.22894686998312777
tp442
a(I838
F0.22845950579616606
tp443
a(I839
F0.22961154561888494
tp444
aa(lp445
(I481
F0.4967403035368771
tp446
a(I482
F0.516472787383753
tp447
a(I483
F0.519077668916186
tp448
a(I484
F0.5119925125089154
tp449
a(I485
F0.5183585357239915
tp450
a(I486
F0.5181264145010357
tp451
a(I487
F0.505916579634658
tp452
a(I503
F0.5200802196720758
tp453
a(I504
F0.5303460343008066
tp454
a(I505
F0.5238418230369338
tp455
a(I506
F0.5115509394980706
tp456
a(I507
F0.520514815849678
tp457
a(I508
F0.5338782948188319
tp458
a(I509
F0.5310373282982706
tp459
a(I526
F0.48114662932422103
tp460
a(I527
F0.4848455011076953
tp461
a(I528
F0.47887186861482195
tp462
a(I529
F0.47887021474024266
tp463
a(I530
F0.48610473836881335
tp464
aa(lp465
(I723
F0.8398169275316099
tp466
a(I724
F0.8351918859947778
tp467
a(I725
F0.8400866348466723
tp468
a(I726
F0.8450017815800241
tp469
a(I727
F0.8410347146988254
tp470
a(I728
F0.8441109747275093
tp471
a(I729
F0.8650140062207018
tp472
a(I745
F0.8532476811738541
tp473
a(I746
F0.8415627913635207
tp474
a(I747
F0.847684667099318
tp475
a(I748
F0.8478668354074411
tp476
a(I749
F0.8434315405876649
tp477
a(I750
F0.8606548735913985
tp478
a(I751
F0.8574520650173498
tp479
a(I767
F0.8051373258731297
tp480
a(I768
F0.794872197217472
tp481
a(I769
F0.8020176869544481
tp482
a(I770
F0.8142746291491545
tp483
a(I771
F0.8060812902028893
tp484
aa(lp485
(I663
F0.8446756088475718
tp486
a(I679
F0.8725149050479319
tp487
a(I680
F0.8774416259202515
tp488
a(I681
F0.8790303001102726
tp489
a(I682
F0.8786004106344838
tp490
a(I683
F0.8788077046688688
tp491
a(I684
F0.8800158809169347
tp492
a(I685
F0.8837176217811477
tp493
a(I701
F0.874463142966771
tp494
a(I702
F0.8751847816732505
tp495
a(I703
F0.8741498787491807
tp496
a(I704
F0.8684951862742563
tp497
a(I705
F0.8717391171126633
tp498
a(I706
F0.874307697413209
tp499
a(I707
F0.8693302915825578
tp500
a(I723
F0.855144448226651
tp501
a(I724
F0.8533345973017307
tp502
a(I725
F0.8501794283577524
tp503
a(I726
F0.8488707504988011
tp504
aa(lp505
(I657
F0.6220712106127607
tp506
a(I658
F0.6245368214019521
tp507
a(I659
F0.6215129672942975
tp508
a(I662
F0.6254376633794313
tp509
a(I663
F0.6241040769502469
tp510
a(I679
F0.6390317016198542
tp511
a(I680
F0.6308174546549347
tp512
a(I681
F0.6408114470827355
tp513
a(I682
F0.6363015003379305
tp514
a(I683
F0.6357209154989032
tp515
a(I684
F0.6442344811306419
tp516
a(I685
F0.6414754896902081
tp517
a(I701
F0.6411194050473462
tp518
a(I702
F0.6480019253877958
tp519
a(I703
F0.6466837787143564
tp520
a(I704
F0.6453440358545698
tp521
a(I705
F0.6328685428641304
tp522
a(I706
F0.6365868974419425
tp523
a(I707
F0.6315901322187639
tp524
aa(lp525
(I593
F0.5059775961181674
tp526
a(I594
F0.5000552458135765
tp527
a(I595
F0.5041632692460837
tp528
a(I596
F0.5146593817217131
tp529
a(I597
F0.5253634067549787
tp530
a(I613
F0.5753009203593573
tp531
a(I614
F0.579522405952571
tp532
a(I615
F0.5955456475364822
tp533
a(I616
F0.5919336265166872
tp534
a(I617
F0.5826704332266797
tp535
a(I618
F0.5925781899829726
tp536
a(I619
F0.5988585514197695
tp537
a(I635
F0.5525450816036691
tp538
a(I636
F0.5540507203370723
tp539
a(I637
F0.5606165759231839
tp540
a(I638
F0.5476575091711783
tp541
a(I639
F0.5377209797264708
tp542
a(I640
F0.5342980416838764
tp543
a(I641
F0.5207796209220226
tp544
aa(lp545
(I547
F0.5309261534275577
tp546
a(I548
F0.5335465363212232
tp547
a(I549
F0.5368803950822624
tp548
a(I550
F0.5361692262906181
tp549
a(I551
F0.5397792597228673
tp550
a(I552
F0.5420593719451594
tp551
a(I553
F0.5425009819672703
tp552
a(I569
F0.5143244048645177
tp553
a(I570
F0.5115208605780234
tp554
a(I571
F0.5067220347528394
tp555
a(I572
F0.5011069671315512
tp556
a(I573
F0.4981790814920342
tp557
a(I833
F0.5960497935118416
tp558
a(I834
F0.6010728277140542
tp559
a(I835
F0.6052158281458118
tp560
a(I836
F0.6058851807998683
tp561
a(I837
F0.6061424501672709
tp562
a(I838
F0.6098274488539556
tp563
a(I839
F0.6114801726686988
tp564
aa(lp565
(I549
F0.7628713342705049
tp566
a(I550
F0.7668831999818883
tp567
a(I551
F0.7715587129112812
tp568
a(I552
F0.7754955028827969
tp569
a(I553
F0.7788540061966636
tp570
a(I569
F0.7856751187086354
tp571
a(I570
F0.7837238472443385
tp572
a(I571
F0.7814379652320288
tp573
a(I572
F0.7785509399423212
tp574
a(I573
F0.7758718567930947
tp575
a(I574
F0.7727468321251988
tp576
a(I575
F0.7698786384835922
tp577
a(I833
F0.7965596966702247
tp578
a(I834
F0.8056838656309536
tp579
a(I835
F0.8146285902420547
tp580
a(I836
F0.8237204515916121
tp581
a(I837
F0.8319092511189218
tp582
a(I838
F0.8398307747474082
tp583
a(I839
F0.8472922938123826
tp584
aa(lp585
(I283
F0.903370675030905
tp586
a(I284
F0.9083602146168636
tp587
a(I285
F0.9129399174175689
tp588
a(I286
F0.9174097799382688
tp589
a(I287
F0.921292064103682
tp590
a(I288
F0.9248737464230099
tp591
a(I289
F0.9283103030876491
tp592
a(I305
F0.9240337663362616
tp593
a(I306
F0.920039110768993
tp594
a(I307
F0.9157876348252608
tp595
a(I308
F0.9108654064503267
tp596
a(I309
F0.9060089331737481
tp597
a(I310
F0.9007169195664461
tp598
a(I311
F0.8945125630994718
tp599
a(I571
F0.8427950480130598
tp600
a(I572
F0.8437506726901101
tp601
a(I573
F0.8437647874359616
tp602
a(I574
F0.843323250534804
tp603
a(I575
F0.8421772691459012
tp604
aa(lp605
(I663
F0.7721147469326425
tp606
a(I679
F0.9326375328717851
tp607
a(I680
F0.9389743893917314
tp608
a(I681
F0.9447722125356927
tp609
a(I682
F0.9502104685624678
tp610
a(I683
F0.955196003969713
tp611
a(I684
F0.95973654622749
tp612
a(I685
F0.9641640758268872
tp613
a(I701
F0.9852959837884736
tp614
a(I702
F0.9830157180171262
tp615
a(I703
F0.9804086037931244
tp616
a(I704
F0.9773246953149862
tp617
a(I705
F0.9738586171034641
tp618
a(I706
F0.970044714631329
tp619
a(I707
F0.9659138995120439
tp620
a(I723
F0.8206809983629186
tp621
a(I724
F0.8066341598833634
tp622
a(I725
F0.7921598677250509
tp623
a(I726
F0.7769722564880954
tp624
aa(lp625
(I285
F0.7843047050443261
tp626
a(I286
F0.791096526297609
tp627
a(I287
F0.7971570959963679
tp628
a(I288
F0.8026527427837804
tp629
a(I289
F0.8079885115271713
tp630
a(I305
F0.8277216872453204
tp631
a(I306
F0.8246087240805088
tp632
a(I307
F0.8207361884576665
tp633
a(I308
F0.816266682121995
tp634
a(I309
F0.8117123314566127
tp635
a(I310
F0.8066269720996309
tp636
a(I311
F0.8005539192015331
tp637
a(I701
F0.7865211873467396
tp638
a(I702
F0.7927375846959688
tp639
a(I703
F0.7987584332371418
tp640
a(I704
F0.803829249411448
tp641
a(I705
F0.8082387937730505
tp642
a(I706
F0.8124256714321235
tp643
a(I707
F0.8160182726865839
tp644
aa(lp645
(I397
F0.9049689962851699
tp646
a(I398
F0.9141489652014071
tp647
a(I399
F0.9226454224328922
tp648
a(I415
F0.9311041861460869
tp649
a(I416
F0.9227335460026715
tp650
a(I417
F0.9136076385394135
tp651
a(I418
F0.9036958327764912
tp652
a(I769
F0.9044152917787958
tp653
a(I770
F0.9154931407030067
tp654
a(I771
F0.9257607651413892
tp655
a(I772
F0.9352188000591927
tp656
a(I773
F0.9439382560361177
tp657
a(I789
F0.9679081592847334
tp658
a(I790
F0.9596212336975133
tp659
a(I791
F0.9505760152293122
tp660
a(I792
F0.9408460961713929
tp661
a(I793
F0.9303360537668073
tp662
a(I794
F0.9189867758729012
tp663
a(I795
F0.9067339413113276
tp664
aa(lp665
(I371
F0.9711061467127162
tp666
a(I372
F0.9766455391123128
tp667
a(I373
F0.9809205227915382
tp668
a(I374
F0.9837252251498628
tp669
a(I375
F0.9851562450773088
tp670
a(I376
F0.9847455151263197
tp671
a(I377
F0.9827084383230178
tp672
a(I747
F0.8688834143848374
tp673
a(I748
F0.8837314721378436
tp674
a(I749
F0.8976576026981703
tp675
a(I750
F0.9107297832654173
tp676
a(I751
F0.9229050734653527
tp677
a(I767
F0.9633574545023248
tp678
a(I768
F0.9538315467587715
tp679
a(I769
F0.943516875696074
tp680
a(I770
F0.932367909657537
tp681
a(I771
F0.9204447775404706
tp682
a(I772
F0.9077649986311482
tp683
a(I773
F0.8943739831844122
tp684
aa(lp685
(I371
F0.8999658934697602
tp686
a(I372
F0.9111063278137158
tp687
a(I373
F0.9216326765617324
tp688
a(I374
F0.9314596884393197
tp689
a(I375
F0.9405455213400871
tp690
a(I376
F0.9489230921661146
tp691
a(I377
F0.9567884886240787
tp692
a(I393
F0.9405928809745632
tp693
a(I394
F0.930304316886227
tp694
a(I395
F0.919343484737098
tp695
a(I396
F0.9076785326371913
tp696
a(I397
F0.8954325307188101
tp697
a(I767
F0.9760001748975445
tp698
a(I768
F0.9798376649335147
tp699
a(I769
F0.9829157405242072
tp700
a(I770
F0.98512697167794
tp701
a(I771
F0.9863141049946504
tp702
a(I772
F0.9864376628313015
tp703
a(I773
F0.985319433691517
tp704
aa(lp705
(I374
F0.8008493441169502
tp706
a(I375
F0.8190090682908114
tp707
a(I376
F0.8360559883350129
tp708
a(I377
F0.8519890611078748
tp709
a(I393
F0.9320428531847241
tp710
a(I394
F0.9196328360468289
tp711
a(I395
F0.9057164865290607
tp712
a(I396
F0.8908959883758397
tp713
a(I397
F0.8756696413009832
tp714
a(I398
F0.860448541911668
tp715
a(I399
F0.8452554459242094
tp716
a(I767
F0.9287957517369391
tp717
a(I768
F0.9392718170036132
tp718
a(I769
F0.94824461822416
tp719
a(I770
F0.9559391904588569
tp720
a(I771
F0.9625995499941806
tp721
a(I772
F0.968192711174136
tp722
a(I773
F0.9723847506533392
tp723
a(I789
F0.7978947581851265
tp724
aa(lp725
(I374
F0.9515170371259328
tp726
a(I375
F0.9563890720591393
tp727
a(I376
F0.9603903381459813
tp728
a(I377
F0.963853952541106
tp729
a(I393
F0.9784687226908005
tp730
a(I394
F0.9737700710061871
tp731
a(I395
F0.9681584883888031
tp732
a(I396
F0.9617300904972682
tp733
a(I397
F0.9545730791067645
tp734
a(I768
F0.9498197263929254
tp735
a(I769
F0.9552892833450805
tp736
a(I770
F0.9600151264870052
tp737
a(I771
F0.964120488984539
tp738
a(I772
F0.9676934758761375
tp739
a(I773
F0.970845250255323
tp740
a(I789
F0.9743634472590244
tp741
a(I790
F0.9686564482696794
tp742
a(I791
F0.9621963846716097
tp743
a(I792
F0.9551374307949363
tp744
aa(lp745
(I377
F0.8086709317837447
tp746
a(I393
F0.9823413513232944
tp747
a(I394
F0.9847208798970636
tp748
a(I395
F0.9853341942916661
tp749
a(I396
F0.9842261769383587
tp750
a(I397
F0.9815038535566636
tp751
a(I398
F0.9771413158771538
tp752
a(I399
F0.9713108715614676
tp753
a(I767
F0.8860045706487623
tp754
a(I768
F0.8965339337322406
tp755
a(I769
F0.9071757410512814
tp756
a(I770
F0.9178864415405236
tp757
a(I771
F0.9280409752522901
tp758
a(I772
F0.9371294325395589
tp759
a(I773
F0.9445284512906139
tp760
a(I789
F0.828917143634738
tp761
a(I790
F0.8194064316829571
tp762
a(I791
F0.8098918835234908
tp763
a(I792
F0.7997183401130745
tp764
aa(lp765
(I371
F0.8804849983613138
tp766
a(I372
F0.8908679101692998
tp767
a(I373
F0.9013301738174556
tp768
a(I374
F0.9113501759870873
tp769
a(I375
F0.9205410397484677
tp770
a(I376
F0.9286635771944204
tp771
a(I377
F0.9354503585249477
tp772
a(I393
F0.819479136504114
tp773
a(I394
F0.8078493732437643
tp774
a(I395
F0.7964499613477332
tp775
a(I750
F0.7900217286684501
tp776
a(I751
F0.7957902146459999
tp777
a(I767
F0.8887836426154258
tp778
a(I768
F0.8797732235006692
tp779
a(I769
F0.8695917543444591
tp780
a(I770
F0.858667891664818
tp781
a(I771
F0.8472936317261403
tp782
a(I772
F0.8358624194343239
tp783
a(I773
F0.8245147725738726
tp784
aa(lp785
(I371
F0.7027972670902511
tp786
a(I372
F0.7087018738243991
tp787
a(I373
F0.716234634337205
tp788
a(I374
F0.7259308251226233
tp789
a(I375
F0.738678476668692
tp790
a(I376
F0.7553296963940019
tp791
a(I377
F0.7763672501796101
tp792
a(I395
F0.6987233572759723
tp793
a(I396
F0.716458064094431
tp794
a(I397
F0.739161880542739
tp795
a(I398
F0.7622105449929121
tp796
a(I399
F0.7809369254763987
tp797
a(I767
F0.870737112134259
tp798
a(I768
F0.8708958597055987
tp799
a(I769
F0.8602950025724696
tp800
a(I770
F0.8389217805482688
tp801
a(I771
F0.8085408914217007
tp802
a(I772
F0.7725350921336279
tp803
a(I773
F0.7350847789345712
tp804
aa(lp805
(I371
F0.5670132021824884
tp806
a(I375
F0.5508457320200606
tp807
a(I376
F0.5881915762421294
tp808
a(I377
F0.6431109785659811
tp809
a(I395
F0.5886126959367057
tp810
a(I396
F0.6432224212129564
tp811
a(I397
F0.6933202778368428
tp812
a(I398
F0.7316768181063384
tp813
a(I399
F0.753369466916132
tp814
a(I745
F0.5950669828263081
tp815
a(I746
F0.5940253153607838
tp816
a(I747
F0.5899340963480074
tp817
a(I748
F0.5826167584650606
tp818
a(I749
F0.5726765021285478
tp819
a(I750
F0.5622106831151866
tp820
a(I751
F0.5546993780727904
tp821
a(I767
F0.5767836974194795
tp822
a(I772
F0.5458396310492909
tp823
a(I773
F0.6050805608920274
tp824
aa(lp825
(I373
F0.6402252189938892
tp826
a(I374
F0.7337479603213921
tp827
a(I375
F0.8261355153554892
tp828
a(I376
F0.9046568155026011
tp829
a(I377
F0.9574453289121323
tp830
a(I393
F0.7661160341457361
tp831
a(I394
F0.7911905488863559
tp832
a(I395
F0.7889439743115155
tp833
a(I396
F0.7610703786765759
tp834
a(I397
F0.7126138682620943
tp835
a(I398
F0.650981315251593
tp836
a(I750
F0.5889856423106978
tp837
a(I751
F0.6658364447277632
tp838
a(I768
F0.6095771256148232
tp839
a(I769
F0.6855843847672937
tp840
a(I770
F0.7487714347369241
tp841
a(I771
F0.7897714515609223
tp842
a(I772
F0.8033535667887656
tp843
a(I773
F0.7886705016220749
tp844
aa(lp845
(I374
F0.6004207919228357
tp846
a(I375
F0.7591657245766277
tp847
a(I376
F0.8886583232188241
tp848
a(I377
F0.9691607647389611
tp849
a(I393
F0.6850446597418131
tp850
a(I394
F0.7113976912878339
tp851
a(I395
F0.7041378999988439
tp852
a(I396
F0.6679122393255967
tp853
a(I397
F0.6128562200051362
tp854
a(I398
F0.5513190351437661
tp855
a(I750
F0.7000688886275518
tp856
a(I751
F0.8366309529592361
tp857
a(I767
F0.605449703382051
tp858
a(I768
F0.6714505406295742
tp859
a(I769
F0.7084028607519088
tp860
a(I770
F0.7131974533473743
tp861
a(I771
F0.6875423095435463
tp862
a(I772
F0.6399080315722221
tp863
a(I773
F0.5819749465635911
tp864
aa(lp865
(I355
F0.6952909550413355
tp866
a(I371
F0.7918036919631758
tp867
a(I372
F0.8681408589755698
tp868
a(I373
F0.9320880533474212
tp869
a(I374
F0.975491818215148
tp870
a(I375
F0.993055708022789
tp871
a(I376
F0.9804919253357182
tp872
a(I377
F0.9359482076880836
tp873
a(I393
F0.7191362924569069
tp874
a(I729
F0.6763887246409611
tp875
a(I745
F0.7676492720574332
tp876
a(I746
F0.8381228930768084
tp877
a(I747
F0.9031416599509524
tp878
a(I748
F0.9540303376273431
tp879
a(I749
F0.9840562754156038
tp880
a(I750
F0.987978837687062
tp881
a(I751
F0.9630187341013714
tp882
a(I767
F0.7678692427874414
tp883
a(I768
F0.7171523596282238
tp884
aa(lp885
(I355
F0.6464680928898485
tp886
a(I371
F0.8154630474686754
tp887
a(I372
F0.898889167166296
tp888
a(I373
F0.9612305292736398
tp889
a(I374
F0.9923473510060223
tp890
a(I375
F0.9868090784760644
tp891
a(I376
F0.9455587235868927
tp892
a(I377
F0.8755054551898541
tp893
a(I393
F0.6803078532509919
tp894
a(I729
F0.6348489304211496
tp895
a(I745
F0.7799431255232012
tp896
a(I746
F0.8726486484318959
tp897
a(I747
F0.9459522996831311
tp898
a(I748
F0.9883005657065992
tp899
a(I749
F0.9925903983711679
tp900
a(I750
F0.9580830940107421
tp901
a(I751
F0.890589703244576
tp902
a(I767
F0.6811295039362077
tp903
a(I768
F0.6335067450957449
tp904
aa(lp905
(I355
F0.6539641280006632
tp906
a(I371
F0.8176306530359018
tp907
a(I372
F0.9031178270880925
tp908
a(I373
F0.9651822400057491
tp909
a(I374
F0.9937128859281313
tp910
a(I375
F0.9838511039114339
tp911
a(I376
F0.937313023534364
tp912
a(I377
F0.8617201885365909
tp913
a(I393
F0.6425208618378317
tp914
a(I728
F0.6329809166202791
tp915
a(I729
F0.6829535066063566
tp916
a(I745
F0.8903251884156296
tp917
a(I746
F0.95676525468702
tp918
a(I747
F0.9925083272523386
tp919
a(I748
F0.9915525796496897
tp920
a(I749
F0.9542097118410923
tp921
a(I750
F0.8872436423217709
tp922
a(I751
F0.8017237633931767
tp923
a(I767
F0.6247703688213895
tp924
aa(lp925
(I355
F0.6433126071869416
tp926
a(I371
F0.8984314798530967
tp927
a(I372
F0.9643202080071787
tp928
a(I373
F0.9936160866578566
tp929
a(I374
F0.9817130890796063
tp930
a(I375
F0.9310804611711216
tp931
a(I376
F0.8506995298486286
tp932
a(I377
F0.7538709709135953
tp933
a(I393
F0.6126147272950274
tp934
a(I727
F0.6282669916815994
tp935
a(I728
F0.6765899002475212
tp936
a(I729
F0.7155546294746641
tp937
a(I745
F0.9822154791264134
tp938
a(I746
F0.9962441840884652
tp939
a(I747
F0.9710008478301504
tp940
a(I748
F0.911277763648971
tp941
a(I749
F0.8274063673181132
tp942
a(I750
F0.732758548733475
tp943
a(I751
F0.6415451939955933
tp944
aa(lp945
(I353
F0.6295356594632189
tp946
a(I354
F0.6735519961250492
tp947
a(I355
F0.7153970066577392
tp948
a(I371
F0.9434502656770448
tp949
a(I372
F0.9869367598402391
tp950
a(I373
F0.9926281571980927
tp951
a(I374
F0.959099875436613
tp952
a(I375
F0.8920644585185838
tp953
a(I376
F0.8024413144603271
tp954
a(I377
F0.7039821775340686
tp955
a(I728
F0.6599677485343615
tp956
a(I729
F0.702703865586127
tp957
a(I745
F0.8995887571141535
tp958
a(I746
F0.9604511567336953
tp959
a(I747
F0.9914154699233209
tp960
a(I748
F0.9866487581487204
tp961
a(I749
F0.9465588355667119
tp962
a(I750
F0.8779231769500878
tp963
a(I751
F0.7917585850002364
tp964
aa(lp965
(I371
F0.875662588002579
tp966
a(I372
F0.9255621531943733
tp967
a(I373
F0.9636588975071152
tp968
a(I374
F0.9861761527846399
tp969
a(I375
F0.989925025374169
tp970
a(I376
F0.9743585633780123
tp971
a(I377
F0.9429162803271258
tp972
a(I393
F0.8002164338154673
tp973
a(I394
F0.7966793602197743
tp974
a(I395
F0.7908753377892666
tp975
a(I747
F0.8238341363775031
tp976
a(I748
F0.8835297345523905
tp977
a(I749
F0.9341735448714075
tp978
a(I750
F0.9707821806101242
tp979
a(I751
F0.9892357156967762
tp980
a(I770
F0.7841442311704805
tp981
a(I771
F0.7878369882392937
tp982
a(I772
F0.78869213246788
tp983
a(I773
F0.784194929266034
tp984
aa(lp985
(I375
F0.7091275713980818
tp986
a(I376
F0.7773152210051758
tp987
a(I377
F0.8457553551051772
tp988
a(I393
F0.6902098985818197
tp989
a(I394
F0.7231332104100082
tp990
a(I395
F0.7434473091215092
tp991
a(I396
F0.7488186857994114
tp992
a(I397
F0.7393653682776464
tp993
a(I398
F0.7173351225671293
tp994
a(I399
F0.6861405587300976
tp995
a(I745
F0.7050745705797907
tp996
a(I746
F0.7209444644941814
tp997
a(I747
F0.7333351674687042
tp998
a(I748
F0.7395715783730943
tp999
a(I749
F0.737550794303743
tp1000
a(I750
F0.7263775069850861
tp1001
a(I751
F0.7072639567541231
tp1002
a(I767
F0.7606134888553863
tp1003
a(I768
F0.694114409804002
tp1004
aa(lp1005
(I371
F0.6882592288418174
tp1006
a(I372
F0.6567742440576659
tp1007
a(I376
F0.6534069251734318
tp1008
a(I377
F0.6977730738372763
tp1009
a(I396
F0.6805722868292755
tp1010
a(I397
F0.7021279313773193
tp1011
a(I398
F0.7136717817868682
tp1012
a(I399
F0.7137171567537047
tp1013
a(I748
F0.670445195788711
tp1014
a(I749
F0.6947244472798353
tp1015
a(I750
F0.7230420508037181
tp1016
a(I751
F0.7527063059610689
tp1017
a(I767
F0.8901366539466357
tp1018
a(I768
F0.933623962920426
tp1019
a(I769
F0.9554807647034366
tp1020
a(I770
F0.9516985864744766
tp1021
a(I771
F0.9229876822940861
tp1022
a(I772
F0.8736070345004732
tp1023
a(I773
F0.8105848882886687
tp1024
aa(lp1025
(I371
F0.7724611070205663
tp1026
a(I372
F0.761480047795416
tp1027
a(I373
F0.7338496250349272
tp1028
a(I374
F0.6930042269568849
tp1029
a(I375
F0.6455829583366001
tp1030
a(I376
F0.6001913559327529
tp1031
a(I377
F0.5662816963278992
tp1032
a(I393
F0.5985400716693169
tp1033
a(I394
F0.5553459435417725
tp1034
a(I397
F0.5441932772023622
tp1035
a(I398
F0.566345782235273
tp1036
a(I399
F0.5906926069496472
tp1037
a(I767
F0.582178386678176
tp1038
a(I768
F0.5528580231017056
tp1039
a(I769
F0.5465588086522725
tp1040
a(I770
F0.566038496472981
tp1041
a(I771
F0.6101096440413263
tp1042
a(I772
F0.6732836812164036
tp1043
a(I773
F0.747184133699343
tp1044
aa(lp1045
(I372
F0.7376974632797727
tp1046
a(I373
F0.7675934072449476
tp1047
a(I374
F0.7867556781059276
tp1048
a(I375
F0.7910312591112937
tp1049
a(I376
F0.7783615027909849
tp1050
a(I377
F0.7495537944150067
tp1051
a(I393
F0.8901319961220595
tp1052
a(I394
F0.8226991017826583
tp1053
a(I395
F0.7501462709766091
tp1054
a(I768
F0.7461639003640573
tp1055
a(I769
F0.792241886596556
tp1056
a(I770
F0.8323663401551739
tp1057
a(I771
F0.8601890246365225
tp1058
a(I772
F0.8705223331190394
tp1059
a(I773
F0.8609661556197398
tp1060
a(I789
F0.8709850295386983
tp1061
a(I790
F0.8231560750056647
tp1062
a(I791
F0.769026011046384
tp1063
a(I792
F0.7166723737895528
tp1064
aa(lp1065
(I373
F0.5934029161703882
tp1066
a(I374
F0.6172675168249899
tp1067
a(I375
F0.6441945500914208
tp1068
a(I376
F0.6750472050000683
tp1069
a(I377
F0.7089880703607736
tp1070
a(I393
F0.8131358773354008
tp1071
a(I394
F0.87469644570588
tp1072
a(I395
F0.9241797371516952
tp1073
a(I396
F0.9539465882484767
tp1074
a(I397
F0.9598112878317845
tp1075
a(I398
F0.9413239196870576
tp1076
a(I399
F0.9018382497900731
tp1077
a(I789
F0.6436494972259716
tp1078
a(I790
F0.653236844320709
tp1079
a(I791
F0.6810064095359317
tp1080
a(I792
F0.7230226440492901
tp1081
a(I793
F0.7728594814679302
tp1082
a(I794
F0.8228407877311569
tp1083
a(I795
F0.8650791845476914
tp1084
aa(lp1085
(I393
F0.5936446722816622
tp1086
a(I394
F0.6253319051773486
tp1087
a(I395
F0.6775118047281081
tp1088
a(I396
F0.7434181249667771
tp1089
a(I397
F0.8132712440754127
tp1090
a(I398
F0.8760254929685645
tp1091
a(I399
F0.9210308037500479
tp1092
a(I789
F0.745626524142597
tp1093
a(I790
F0.7801065202420805
tp1094
a(I791
F0.8031024438037945
tp1095
a(I792
F0.8114466697953088
tp1096
a(I793
F0.8037528744949105
tp1097
a(I794
F0.7807732408406182
tp1098
a(I795
F0.7456871777933145
tp1099
a(I811
F0.6947437272429257
tp1100
a(I812
F0.6414227784104829
tp1101
a(I813
F0.5920804615485523
tp1102
a(I814
F0.5505081510160318
tp1103
a(I815
F0.5180523123725594
tp1104
aa(lp1105
(I393
F0.8192444172466887
tp1106
a(I394
F0.8201167417662409
tp1107
a(I395
F0.8144494171528467
tp1108
a(I396
F0.8027913245068184
tp1109
a(I397
F0.7886696708324713
tp1110
a(I398
F0.7771790004400609
tp1111
a(I415
F0.8205456118607704
tp1112
a(I416
F0.8048251245994551
tp1113
a(I417
F0.7888739526264823
tp1114
a(I793
F0.7770156976901308
tp1115
a(I794
F0.7979116541005664
tp1116
a(I795
F0.8171036484724793
tp1117
a(I811
F0.8069774462224046
tp1118
a(I812
F0.8052223438178671
tp1119
a(I813
F0.804003427210824
tp1120
a(I814
F0.8031905572747055
tp1121
a(I815
F0.8028209852997135
tp1122
a(I816
F0.8021964153913438
tp1123
a(I817
F0.800811374400893
tp1124
aa(lp1125
(I393
F0.925388111871006
tp1126
a(I394
F0.9235005991378535
tp1127
a(I395
F0.9193602348652178
tp1128
a(I396
F0.9143024649164428
tp1129
a(I397
F0.9092757263713382
tp1130
a(I398
F0.9046985795897767
tp1131
a(I399
F0.9015006155626167
tp1132
a(I415
F0.8910007131304565
tp1133
a(I416
F0.8811674336318254
tp1134
a(I417
F0.8700193435631721
tp1135
a(I418
F0.8578996674319614
tp1136
a(I795
F0.8608669025337965
tp1137
a(I811
F0.9200822743349611
tp1138
a(I812
F0.9171498589227489
tp1139
a(I813
F0.9123047486547976
tp1140
a(I814
F0.9056959101918233
tp1141
a(I815
F0.8973538383254258
tp1142
a(I816
F0.8876179647391785
tp1143
a(I817
F0.8773096398805378
tp1144
aa(lp1145
(I396
F0.8451761684868513
tp1146
a(I397
F0.8548866779209315
tp1147
a(I398
F0.8648525600113789
tp1148
a(I399
F0.8751345615268395
tp1149
a(I415
F0.9240835390014421
tp1150
a(I416
F0.9199179246521324
tp1151
a(I417
F0.9150452045661721
tp1152
a(I418
F0.9091478084023925
tp1153
a(I419
F0.9017244361324122
tp1154
a(I420
F0.8924588945118099
tp1155
a(I421
F0.8812285146873815
tp1156
a(I814
F0.8430779240935062
tp1157
a(I815
F0.8470027030844337
tp1158
a(I816
F0.8505771376479415
tp1159
a(I817
F0.8539544607773785
tp1160
a(I833
F0.8578155018233692
tp1161
a(I834
F0.8535077691982317
tp1162
a(I835
F0.8482761993934368
tp1163
a(I836
F0.8422030160438626
tp1164
aa(lp1165
(I395
F0.798559205732996
tp1166
a(I396
F0.8096981677042597
tp1167
a(I397
F0.8209742293834894
tp1168
a(I398
F0.832042581134694
tp1169
a(I399
F0.8425708876846353
tp1170
a(I415
F0.9500360878304653
tp1171
a(I416
F0.949415255533427
tp1172
a(I417
F0.9476720001996488
tp1173
a(I418
F0.9448867068555922
tp1174
a(I419
F0.9409254463881371
tp1175
a(I420
F0.9357130732869723
tp1176
a(I421
F0.9290145716612546
tp1177
a(I833
F0.8620703166985237
tp1178
a(I834
F0.8681411662108932
tp1179
a(I835
F0.8739020559031999
tp1180
a(I836
F0.8790542387762691
tp1181
a(I837
F0.8835214853659156
tp1182
a(I838
F0.8870689167550223
tp1183
a(I839
F0.8896472143982292
tp1184
aa(lp1185
(I415
F0.8830163659236435
tp1186
a(I416
F0.8932156042168795
tp1187
a(I417
F0.9031610386317017
tp1188
a(I418
F0.9123067400562161
tp1189
a(I419
F0.9201784612721368
tp1190
a(I420
F0.9266694940465595
tp1191
a(I421
F0.9318216120537249
tp1192
a(I437
F0.8078071522425061
tp1193
a(I438
F0.7893989918965405
tp1194
a(I439
F0.7705283961340386
tp1195
a(I440
F0.751603386001627
tp1196
a(I441
F0.7330454078288793
tp1197
a(I833
F0.7839013413164662
tp1198
a(I834
F0.7961081414461385
tp1199
a(I835
F0.8073680416036476
tp1200
a(I836
F0.8176621667233323
tp1201
a(I837
F0.8269931478752547
tp1202
a(I838
F0.8355492970341131
tp1203
a(I839
F0.8433775136784012
tp1204
aa(lp1205
(I398
F0.549217734841955
tp1206
a(I399
F0.5589173581747431
tp1207
a(I415
F0.7924250244713941
tp1208
a(I416
F0.8122757039843845
tp1209
a(I417
F0.8319296126967749
tp1210
a(I418
F0.8507200157747817
tp1211
a(I419
F0.8683765985967931
tp1212
a(I420
F0.8849371860758124
tp1213
a(I421
F0.8999651433556806
tp1214
a(I437
F0.7346373234715586
tp1215
a(I438
F0.705218429302701
tp1216
a(I439
F0.6759734221342824
tp1217
a(I440
F0.647418741059584
tp1218
a(I441
F0.6201208528807077
tp1219
a(I442
F0.5945474381483602
tp1220
a(I443
F0.5706739131815571
tp1221
a(I837
F0.5661079039490927
tp1222
a(I838
F0.5863025585384405
tp1223
a(I839
F0.6063708222034726
tp1224
aa(lp1225
(I376
F0.4067187892547169
tp1226
a(I377
F0.418492265099572
tp1227
a(I415
F0.4799095983304082
tp1228
a(I416
F0.500515741251007
tp1229
a(I417
F0.5216415769601499
tp1230
a(I418
F0.5436935268513771
tp1231
a(I419
F0.5664425459303312
tp1232
a(I420
F0.5891852505875278
tp1233
a(I421
F0.6118125985234689
tp1234
a(I437
F0.8672880336429619
tp1235
a(I438
F0.8478967840943032
tp1236
a(I439
F0.8238700350750602
tp1237
a(I440
F0.7954068056912931
tp1238
a(I441
F0.7630049996453186
tp1239
a(I442
F0.7280191690008713
tp1240
a(I443
F0.6911727229831922
tp1241
a(I481
F0.4151093974404836
tp1242
a(I482
F0.41031332957772293
tp1243
a(I483
F0.40321940543174417
tp1244
aa(lp1245
(I419
F0.30523770470598605
tp1246
a(I420
F0.3635377305090593
tp1247
a(I421
F0.42294793637608896
tp1248
a(I437
F0.8385241987534526
tp1249
a(I438
F0.800578857766397
tp1250
a(I439
F0.7579592797800796
tp1251
a(I440
F0.7119532136126223
tp1252
a(I441
F0.6631704633303729
tp1253
a(I442
F0.6122207970814867
tp1254
a(I443
F0.55957725956137
tp1255
a(I481
F0.4275363430136889
tp1256
a(I482
F0.4418784192871849
tp1257
a(I483
F0.4518663161646699
tp1258
a(I484
F0.4582203606105508
tp1259
a(I485
F0.46149248047201175
tp1260
a(I486
F0.4623364141364533
tp1261
a(I487
F0.4605767376370828
tp1262
aa(lp1263
(I437
F0.7501728533052237
tp1264
a(I438
F0.7812723332354101
tp1265
a(I439
F0.8069884023276364
tp1266
a(I440
F0.8248937758289775
tp1267
a(I441
F0.8331669476254826
tp1268
a(I442
F0.8300370415939566
tp1269
a(I443
F0.8143087293842414
tp1270
a(I486
F0.25336758852106384
tp1271
a(I487
F0.25905436972734025
tp1272
a(I833
F0.27219640981935267
tp1273
a(I834
F0.26708331045938977
tp1274
a(I835
F0.2591559567757946
tp1275
aa(lp1276
(I393
F0.19646037807716726
tp1277
a(I394
F0.19724563615173024
tp1278
a(I395
F0.19725839249823296
tp1279
a(I396
F0.1969854746104675
tp1280
a(I397
F0.19655776714481416
tp1281
a(I398
F0.19514305551527314
tp1282
a(I399
F0.19185385066656874
tp1283
a(I439
F0.21595530454895628
tp1284
a(I440
F0.274064981829665
tp1285
a(I441
F0.3359522395571796
tp1286
a(I442
F0.4018999131538221
tp1287
a(I443
F0.4720706483914315
tp1288
a(I459
F0.5734604668905958
tp1289
a(I460
F0.5045152471655378
tp1290
a(I461
F0.43317566933969903
tp1291
a(I462
F0.36002710613734457
tp1292
a(I463
F0.2857402142830647
tp1293
a(I464
F0.2111288843284101
tp1294
aa(lp1295
(I459
F0.9003890367373909
tp1296
a(I460
F0.8628174168287541
tp1297
a(I461
F0.8109183284953196
tp1298
a(I462
F0.7472411071951921
tp1299
a(I463
F0.6748877141889542
tp1300
a(I464
F0.5967380987534673
tp1301
a(I465
F0.514958995903879
tp1302
aa(lp1303
(I459
F0.7749891816051496
tp1304
a(I460
F0.8296040805757032
tp1305
a(I461
F0.8745457682934945
tp1306
a(I462
F0.9084922693898332
tp1307
a(I463
F0.9298038265107758
tp1308
a(I464
F0.9368209271359339
tp1309
a(I465
F0.9283428137450587
tp1310
aa(lp1311
(I421
F0.2330923144291504
tp1312
a(I460
F0.25854442054401816
tp1313
a(I461
F0.35421161642069465
tp1314
a(I462
F0.4473221916691306
tp1315
a(I463
F0.5363751360633507
tp1316
a(I464
F0.6199985241940851
tp1317
a(I465
F0.696927272023676
tp1318
a(I525
F0.22124422591686788
tp1319
a(I526
F0.21238840925628785
tp1320
aa(lp1321
(I463
F0.2602326951342047
tp1322
a(I464
F0.3206052000793924
tp1323
a(I465
F0.3845885315169252
tp1324
a(I481
F0.7803026932877946
tp1325
a(I482
F0.7418851049642166
tp1326
a(I483
F0.6910632684815557
tp1327
a(I484
F0.6301379586917532
tp1328
a(I485
F0.5616080209631572
tp1329
a(I486
F0.48826694340232946
tp1330
a(I487
F0.41271083983004697
tp1331
a(I525
F0.4324254689803985
tp1332
a(I526
F0.44587328104613727
tp1333
a(I527
F0.4519451428968768
tp1334
a(I528
F0.4494815276036002
tp1335
a(I529
F0.4381192627794813
tp1336
a(I530
F0.4177874998321736
tp1337
a(I531
F0.3897407677890187
tp1338
a(I723
F0.2625159190957385
tp1339
a(I724
F0.2370561266502947
tp1340
aa(lp1341
(I244
F0.3493506665402913
tp1342
a(I245
F0.3482188201369887
tp1343
a(I305
F0.37556179471880613
tp1344
a(I306
F0.3596065554472597
tp1345
a(I415
F0.3613104841178967
tp1346
a(I416
F0.3971553956576167
tp1347
a(I417
F0.42860938907685775
tp1348
a(I418
F0.45572952870348515
tp1349
a(I419
F0.478897888580581
tp1350
a(I420
F0.49808478764250863
tp1351
a(I421
F0.5134814079391256
tp1352
a(I481
F0.8741416747899251
tp1353
a(I482
F0.8457256513409834
tp1354
a(I483
F0.8099408708254368
tp1355
a(I484
F0.767528524022797
tp1356
a(I485
F0.7192755916410286
tp1357
a(I486
F0.6656464858222569
tp1358
a(I487
F0.6075921250094624
tp1359
a(I531
F0.35680631483805536
tp1360
aa(lp1361
(I371
F0.5129343154970719
tp1362
a(I418
F0.48398488553150587
tp1363
a(I419
F0.5075884585643788
tp1364
a(I420
F0.5238639833779563
tp1365
a(I421
F0.5337067402241877
tp1366
a(I481
F0.8761109025405744
tp1367
a(I482
F0.854342076696628
tp1368
a(I483
F0.8198830788258326
tp1369
a(I484
F0.7732182785095838
tp1370
a(I485
F0.7150354926001345
tp1371
a(I486
F0.6465835592127014
tp1372
a(I487
F0.5696649059828276
tp1373
a(I525
F0.5038079675892534
tp1374
a(I526
F0.5474122518141122
tp1375
a(I527
F0.5860163331538589
tp1376
a(I528
F0.6186174695937597
tp1377
a(I529
F0.6442195993884029
tp1378
a(I530
F0.6619990313044217
tp1379
a(I531
F0.6716561700420004
tp1380
aa(lp1381
(I261
F0.5378997726235248
tp1382
a(I262
F0.5264737799146004
tp1383
a(I371
F0.6869483613470893
tp1384
a(I372
F0.7259105696578548
tp1385
a(I373
F0.7488891863455499
tp1386
a(I374
F0.7549742163385756
tp1387
a(I375
F0.7442920041516108
tp1388
a(I376
F0.7178754711846144
tp1389
a(I377
F0.6779072152728375
tp1390
a(I481
F0.6221274537827098
tp1391
a(I482
F0.7247679336494471
tp1392
a(I483
F0.816493388033204
tp1393
a(I484
F0.8905710612419878
tp1394
a(I485
F0.942113715872052
tp1395
a(I486
F0.9685539606301768
tp1396
a(I487
F0.9700071080767889
tp1397
a(I595
F0.5066200935639811
tp1398
a(I596
F0.5275518610837966
tp1399
a(I597
F0.5410773462884405
tp1400
aa(lp1401
(I108
F0.5931928440717723
tp1402
a(I109
F0.6438304596781734
tp1403
a(I110
F0.6844473107697481
tp1404
a(I111
F0.7126818837822112
tp1405
a(I112
F0.7268728920281434
tp1406
a(I113
F0.7257430626349528
tp1407
a(I372
F0.5623083391243889
tp1408
a(I373
F0.5795802871700773
tp1409
a(I374
F0.5831108641298883
tp1410
a(I375
F0.5727010618748561
tp1411
a(I376
F0.5491260062855082
tp1412
a(I482
F0.6596797462828653
tp1413
a(I483
F0.7691942536851486
tp1414
a(I484
F0.8640090050968063
tp1415
a(I485
F0.936116155377292
tp1416
a(I486
F0.9786852144576954
tp1417
a(I487
F0.9876080970927238
tp1418
a(I596
F0.581717620655278
tp1419
a(I597
F0.6160519943292455
tp1420
aa(lp1421
(I107
F0.49470031787967955
tp1422
a(I108
F0.5627154674934035
tp1423
a(I109
F0.6242466608763664
tp1424
a(I110
F0.6758755718919081
tp1425
a(I111
F0.7143372659542031
tp1426
a(I112
F0.7369613050031513
tp1427
a(I113
F0.7420400404707975
tp1428
a(I223
F0.40277709641301523
tp1429
a(I372
F0.44050377732913476
tp1430
a(I373
F0.49819699860660943
tp1431
a(I374
F0.5472290592991524
tp1432
a(I375
F0.5852329274010394
tp1433
a(I376
F0.6103503392470148
tp1434
a(I377
F0.6211548534319355
tp1435
a(I484
F0.4636319234601578
tp1436
a(I485
F0.5694834086316296
tp1437
a(I486
F0.6773623685203292
tp1438
a(I487
F0.7798996196912565
tp1439
a(I597
F0.43673790669117823
tp1440
aa(lp1441
(I108
F0.4547179280025085
tp1442
a(I109
F0.5143889854724941
tp1443
a(I110
F0.5693634088867315
tp1444
a(I111
F0.6170113400569542
tp1445
a(I112
F0.6541513481520803
tp1446
a(I113
F0.6775697123983815
tp1447
a(I222
F0.4893255941848993
tp1448
a(I223
F0.526622930584576
tp1449
a(I503
F0.4899653945250574
tp1450
a(I613
F0.5805009661589803
tp1451
a(I614
F0.5306400929001428
tp1452
a(I615
F0.4704993734915935
tp1453
a(I723
F0.6144176856117045
tp1454
a(I724
F0.587276003185613
tp1455
a(I725
F0.5448390027972463
tp1456
a(I726
F0.48885430033390553
tp1457
a(I767
F0.4707182180721066
tp1458
a(I768
F0.4674920575191145
tp1459
a(I769
F0.45485198678611577
tp1460
aa(lp1461
(I110
F0.4728366280151256
tp1462
a(I111
F0.5145001213202871
tp1463
a(I112
F0.5468478130702275
tp1464
a(I113
F0.5682760098172807
tp1465
a(I220
F0.4606752533888413
tp1466
a(I221
F0.516954598699252
tp1467
a(I222
F0.5665848954336192
tp1468
a(I223
F0.6074056747466445
tp1469
a(I503
F0.5977509156098525
tp1470
a(I504
F0.49907640003463083
tp1471
a(I613
F0.5394981709084004
tp1472
a(I614
F0.5190118912105506
tp1473
a(I615
F0.4892055155308194
tp1474
a(I723
F0.6451023838324899
tp1475
a(I724
F0.6274238371635218
tp1476
a(I725
F0.5985595815438819
tp1477
a(I726
F0.5601197135840724
tp1478
a(I727
F0.5135183897743401
tp1479
a(I728
F0.45997527235852115
tp1480
aa(lp1481
(I221
F0.4570920894633051
tp1482
a(I222
F0.501780817336653
tp1483
a(I223
F0.5388611784435825
tp1484
a(I503
F0.4776906256391075
tp1485
a(I613
F0.5620094919262112
tp1486
a(I614
F0.559685194275293
tp1487
a(I615
F0.5476683291231436
tp1488
a(I616
F0.5269866124434698
tp1489
a(I617
F0.49852279653228454
tp1490
a(I618
F0.4630091961231487
tp1491
a(I723
F0.5182821728104614
tp1492
a(I724
F0.530712382579076
tp1493
a(I725
F0.534664656865108
tp1494
a(I726
F0.5308164133172382
tp1495
a(I727
F0.5197368965231881
tp1496
a(I728
F0.5018317600168517
tp1497
a(I729
F0.4771958567030622
tp1498
a(I772
F0.4409811349909507
tp1499
a(I773
F0.4509416217520064
tp1500
aa(lp1501
(I503
F0.6771834639578536
tp1502
a(I504
F0.5937539741351563
tp1503
a(I505
F0.5103232718174123
tp1504
a(I613
F0.5117096512717337
tp1505
a(I614
F0.534563924489903
tp1506
a(I615
F0.5468052916030224
tp1507
a(I616
F0.5491056986276329
tp1508
a(I617
F0.5422275062894073
tp1509
a(I618
F0.5270042293155888
tp1510
a(I619
F0.5040704332487843
tp1511
a(I723
F0.5036400451959092
tp1512
a(I724
F0.5292730781601471
tp1513
a(I725
F0.5445863863182997
tp1514
a(I726
F0.5496603029066016
tp1515
a(I727
F0.5449169496060399
tp1516
a(I728
F0.5309955449729995
tp1517
a(I729
F0.5086805109829413
tp1518
a(I772
F0.5075819966570658
tp1519
a(I773
F0.5131713137291345
tp1520
aa(lp1521
(I113
F0.363063434676753
tp1522
a(I265
F0.3808676397956927
tp1523
a(I266
F0.4402348650885958
tp1524
a(I267
F0.4928995501724481
tp1525
a(I503
F0.6907321067514411
tp1526
a(I504
F0.6044509987575523
tp1527
a(I505
F0.5152590995718259
tp1528
a(I506
F0.4248767206958297
tp1529
a(I547
F0.506972547478088
tp1530
a(I548
F0.48207737338779577
tp1531
a(I549
F0.44664783816277065
tp1532
a(I550
F0.4029263064974102
tp1533
a(I767
F0.4800490514425666
tp1534
a(I768
F0.497907346716428
tp1535
a(I769
F0.50680453850222
tp1536
a(I770
F0.5063562366828007
tp1537
a(I771
F0.49692885040411666
tp1538
a(I772
F0.47905157180336594
tp1539
a(I773
F0.4536152172096832
tp1540
aa(lp1541
(I109
F0.4979641231438134
tp1542
a(I110
F0.5065594338763947
tp1543
a(I111
F0.504994094796844
tp1544
a(I264
F0.5073914735516768
tp1545
a(I265
F0.5541985068059826
tp1546
a(I266
F0.590992106082102
tp1547
a(I267
F0.6166660065601759
tp1548
a(I503
F0.9385296161231191
tp1549
a(I504
F0.9002926666110745
tp1550
a(I505
F0.8498380765764301
tp1551
a(I506
F0.7886091412451601
tp1552
a(I507
F0.7179761001969083
tp1553
a(I508
F0.6392432324159124
tp1554
a(I509
F0.5539972674866395
tp1555
a(I767
F0.5987687907606123
tp1556
a(I768
F0.6003205338871432
tp1557
a(I769
F0.5895794439370401
tp1558
a(I770
F0.5672409295359899
tp1559
a(I771
F0.5345053647433289
tp1560
aa(lp1561
(I107
F0.6050235736374293
tp1562
a(I108
F0.6411033807526613
tp1563
a(I109
F0.6674172086141006
tp1564
a(I110
F0.6823111744559198
tp1565
a(I111
F0.6842769366171602
tp1566
a(I112
F0.6724751739055594
tp1567
a(I113
F0.6469916866342955
tp1568
a(I266
F0.6244492238132828
tp1569
a(I267
F0.6344845815515181
tp1570
a(I503
F0.9188235844329623
tp1571
a(I504
F0.8717685887304899
tp1572
a(I505
F0.8126158312129075
tp1573
a(I506
F0.7427627803334379
tp1574
a(I507
F0.6634097379426271
tp1575
a(I613
F0.6331857841345835
tp1576
a(I614
F0.6132819516907758
tp1577
a(I768
F0.6136256926782248
tp1578
a(I769
F0.619691643424318
tp1579
a(I770
F0.6142035779812594
tp1580
aa(lp1581
(I111
F0.4505280860518818
tp1582
a(I112
F0.5109413604942559
tp1583
a(I113
F0.5624557036124425
tp1584
a(I503
F0.967512703406559
tp1585
a(I504
F0.93850242047621
tp1586
a(I505
F0.8959333477155005
tp1587
a(I506
F0.8418317189986967
tp1588
a(I507
F0.7779885963877492
tp1589
a(I508
F0.7061034214610825
tp1590
a(I509
F0.6275648022211835
tp1591
a(I551
F0.4594654337857176
tp1592
a(I552
F0.4629748198464151
tp1593
a(I553
F0.46088444735686473
tp1594
a(I614
F0.4829212653614865
tp1595
a(I615
F0.5274827261720516
tp1596
a(I616
F0.5640835252879638
tp1597
a(I617
F0.5920251690780748
tp1598
a(I618
F0.6110435771985002
tp1599
a(I619
F0.6206700605841803
tp1600
aa(lp1601
(I112
F0.4231207586893272
tp1602
a(I113
F0.4722602175042304
tp1603
a(I173
F0.44132846008408866
tp1604
a(I174
F0.43843266083921195
tp1605
a(I175
F0.4305292801914563
tp1606
a(I503
F0.8071319487240394
tp1607
a(I504
F0.7439028909447266
tp1608
a(I505
F0.6718705322837281
tp1609
a(I506
F0.5940124777339927
tp1610
a(I507
F0.5128196106009629
tp1611
a(I508
F0.43021956571823383
tp1612
a(I548
F0.42002065122748644
tp1613
a(I549
F0.4342052830490482
tp1614
a(I550
F0.4387143948589832
tp1615
a(I551
F0.4347818754317791
tp1616
a(I552
F0.42393005143017254
tp1617
a(I679
F0.5394554631063571
tp1618
a(I680
F0.5043712731300335
tp1619
a(I681
F0.4622781223543992
tp1620
aa(lp1621
(I129
F0.35201028788492644
tp1622
a(I130
F0.3491706990467573
tp1623
a(I131
F0.3402435823378168
tp1624
a(I173
F0.4948996202296144
tp1625
a(I174
F0.5315343430994776
tp1626
a(I175
F0.5571669654111261
tp1627
a(I176
F0.5715220291461367
tp1628
a(I177
F0.57497973019767
tp1629
a(I178
F0.5684430650103779
tp1630
a(I179
F0.5526428601347915
tp1631
a(I220
F0.3805322259887841
tp1632
a(I221
F0.4251751187822387
tp1633
a(I222
F0.4612651670522874
tp1634
a(I223
F0.48862267248795044
tp1635
a(I487
F0.41791248101224115
tp1636
a(I547
F0.4233972304114086
tp1637
a(I548
F0.3950481230453326
tp1638
a(I549
F0.36313145992895746
tp1639
a(I550
F0.32893104518380506
tp1640
aa(lp1641
(I129
F0.49635522305387664
tp1642
a(I130
F0.5164080805321223
tp1643
a(I131
F0.5273266711219884
tp1644
a(I132
F0.5295274412747094
tp1645
a(I133
F0.5235737189158295
tp1646
a(I134
F0.5100343984054174
tp1647
a(I135
F0.48959234184398365
tp1648
a(I353
F0.3380269935423104
tp1649
a(I354
F0.35759781806405544
tp1650
a(I355
F0.3745430181137965
tp1651
a(I440
F0.3211767786230511
tp1652
a(I441
F0.3185587319602556
tp1653
a(I481
F0.35341457758422046
tp1654
a(I482
F0.44162273677763175
tp1655
a(I483
F0.5303476794237018
tp1656
a(I484
F0.61786955332238
tp1657
a(I485
F0.7014744001730856
tp1658
a(I486
F0.7777544265637061
tp1659
a(I487
F0.8436567815356261
tp1660
aa(lp1661
(I129
F0.41768062128172734
tp1662
a(I130
F0.4458407394349209
tp1663
a(I131
F0.4673059449410847
tp1664
a(I132
F0.48238565478754064
tp1665
a(I133
F0.49155909491193933
tp1666
a(I134
F0.49530363381023185
tp1667
a(I135
F0.493996115496756
tp1668
a(I481
F0.7025644234691965
tp1669
a(I482
F0.7744191744250754
tp1670
a(I483
F0.8354218779559881
tp1671
a(I484
F0.8835137285924646
tp1672
a(I485
F0.916983314613292
tp1673
a(I486
F0.9348009860580272
tp1674
a(I487
F0.9371947778903787
tp1675
a(I681
F0.28242141309161284
tp1676
a(I682
F0.292332723081296
tp1677
a(I683
F0.30172105392003884
tp1678
a(I684
F0.31061618038889394
tp1679
a(I685
F0.31870521958448816
tp1680
aa(lp1681
(I421
F0.3093384868641431
tp1682
a(I481
F0.8867566247935934
tp1683
a(I482
F0.9258660233150743
tp1684
a(I483
F0.9512994730535348
tp1685
a(I484
F0.9627094995540492
tp1686
a(I485
F0.9605776527336443
tp1687
a(I486
F0.9457303172728916
tp1688
a(I487
F0.9190250559551226
tp1689
a(I547
F0.3183843205543596
tp1690
a(I548
F0.2974143713382294
tp1691
aa(lp1692
(I217
F0.34884954895455905
tp1693
a(I218
F0.3439213988793736
tp1694
a(I416
F0.3423818212432079
tp1695
a(I417
F0.3463440594825125
tp1696
a(I418
F0.34836510273924925
tp1697
a(I419
F0.34851653238338787
tp1698
a(I420
F0.3469106979171768
tp1699
a(I421
F0.34343699843061704
tp1700
a(I481
F0.9133675742961637
tp1701
a(I482
F0.9428034741983339
tp1702
a(I483
F0.9606725222944401
tp1703
a(I484
F0.9667702262184875
tp1704
a(I485
F0.9619220161488656
tp1705
a(I486
F0.9468477547639033
tp1706
a(I487
F0.9222870058446818
tp1707
a(I547
F0.43837491545482904
tp1708
a(I548
F0.4082041022192782
tp1709
a(I549
F0.374956884971867
tp1710
a(I550
F0.33963441468638833
tp1711
aa(lp1712
(I351
F0.5118462049347209
tp1713
a(I352
F0.5137584803225961
tp1714
a(I415
F0.5621881217288235
tp1715
a(I416
F0.578832096435581
tp1716
a(I417
F0.5894864061425221
tp1717
a(I418
F0.5943537210649696
tp1718
a(I419
F0.5938243728821618
tp1719
a(I420
F0.5890356584907143
tp1720
a(I421
F0.5800951574340568
tp1721
a(I481
F0.904337975682068
tp1722
a(I482
F0.916329192560377
tp1723
a(I483
F0.9171690666580865
tp1724
a(I484
F0.9075035557288674
tp1725
a(I485
F0.8886095532474654
tp1726
a(I486
F0.8622205083970435
tp1727
a(I487
F0.8302698024035164
tp1728
a(I833
F0.523033669901504
tp1729
a(I834
F0.525017573625475
tp1730
a(I835
F0.5208517223945
tp1731
aa(lp1732
(I349
F0.6007991184810139
tp1733
a(I350
F0.5864832504652853
tp1734
a(I351
F0.5660214054875508
tp1735
a(I352
F0.5388215809079283
tp1736
a(I353
F0.5048423170400691
tp1737
a(I415
F0.6326068894685707
tp1738
a(I416
F0.6489607573159804
tp1739
a(I417
F0.6580636517048986
tp1740
a(I418
F0.6599957711080654
tp1741
a(I419
F0.6549252393306996
tp1742
a(I420
F0.6437387932346575
tp1743
a(I421
F0.6278589753224328
tp1744
a(I481
F0.9575091186821975
tp1745
a(I482
F0.9667622386943743
tp1746
a(I483
F0.9665239121360886
tp1747
a(I484
F0.957630583532038
tp1748
a(I485
F0.9412733503146936
tp1749
a(I486
F0.9183583459443628
tp1750
a(I487
F0.889260663264384
tp1751
aa(lp1752
(I415
F0.5367351849880702
tp1753
a(I416
F0.5404695251048072
tp1754
a(I417
F0.5376962865456429
tp1755
a(I418
F0.5295074663184113
tp1756
a(I419
F0.5171717199749982
tp1757
a(I481
F0.9271710731931347
tp1758
a(I482
F0.9161754152762801
tp1759
a(I483
F0.8990607226616635
tp1760
a(I484
F0.8773962200539268
tp1761
a(I485
F0.8517922431023277
tp1762
a(I486
F0.8217601172645033
tp1763
a(I487
F0.7868222817257271
tp1764
a(I547
F0.5500166791718197
tp1765
a(I548
F0.5288723767901433
tp1766
a(I746
F0.5217577597269273
tp1767
a(I747
F0.5258983902346508
tp1768
a(I748
F0.525185040158348
tp1769
a(I749
F0.5206111849595301
tp1770
a(I750
F0.5129779471224127
tp1771
aa(lp1772
(I265
F0.43167733449073525
tp1773
a(I266
F0.45117051652068313
tp1774
a(I267
F0.46528194398569833
tp1775
a(I327
F0.4810377628500582
tp1776
a(I328
F0.5054444741101581
tp1777
a(I329
F0.5225423675469767
tp1778
a(I330
F0.5317865669260361
tp1779
a(I331
F0.5331050688728511
tp1780
a(I332
F0.5262486982276651
tp1781
a(I333
F0.5116655730222663
tp1782
a(I415
F0.4663360712052086
tp1783
a(I416
F0.447345030162027
tp1784
a(I481
F0.8282893783605009
tp1785
a(I482
F0.7939146669686378
tp1786
a(I483
F0.7542717653165274
tp1787
a(I484
F0.7080279662914789
tp1788
a(I485
F0.6530527404019387
tp1789
a(I486
F0.587921106340426
tp1790
a(I487
F0.5122871127555904
tp1791
aa(lp1792
(I261
F0.3669207662330557
tp1793
a(I262
F0.36883851745696944
tp1794
a(I263
F0.3681041168241977
tp1795
a(I460
F0.4098192990668479
tp1796
a(I461
F0.46739154361406354
tp1797
a(I462
F0.5237705156989743
tp1798
a(I463
F0.5781196946779396
tp1799
a(I464
F0.629061468640845
tp1800
a(I465
F0.6752666177758399
tp1801
a(I481
F0.4708301815290689
tp1802
a(I482
F0.4165233469661851
tp1803
a(I553
F0.36479773841895285
tp1804
a(I723
F0.3684292649974535
tp1805
a(I724
F0.3749844543666753
tp1806
a(I725
F0.37902235811948465
tp1807
a(I726
F0.38089075679234247
tp1808
a(I727
F0.3805163529664747
tp1809
a(I728
F0.3776784218592257
tp1810
a(I729
F0.37196417833149836
tp1811
aa(lp1812
(I85
F0.5394892022354647
tp1813
a(I86
F0.5470993611551709
tp1814
a(I87
F0.5533172578838882
tp1815
a(I88
F0.5578309322783086
tp1816
a(I89
F0.5602514385455241
tp1817
a(I90
F0.5599714349583531
tp1818
a(I91
F0.5561923665829545
tp1819
a(I459
F0.5514400209418753
tp1820
a(I460
F0.6103220497079075
tp1821
a(I461
F0.665804509588605
tp1822
a(I462
F0.7172551239062646
tp1823
a(I463
F0.7640202536994002
tp1824
a(I464
F0.805029949860592
tp1825
a(I465
F0.8395315532155962
tp1826
a(I481
F0.49644871578196303
tp1827
a(I550
F0.5007389181709142
tp1828
a(I551
F0.5254629391439056
tp1829
a(I552
F0.5485115799882846
tp1830
a(I553
F0.5697159657325274
tp1831
aa(lp1832
(I85
F0.6560298579304565
tp1833
a(I86
F0.6475607222644716
tp1834
a(I87
F0.636462652162119
tp1835
a(I88
F0.6227738116665021
tp1836
a(I89
F0.6064799966424236
tp1837
a(I90
F0.5878317842654731
tp1838
a(I438
F0.5741198481996578
tp1839
a(I439
F0.63140236630051
tp1840
a(I440
F0.6854664082411479
tp1841
a(I441
F0.7360296438390198
tp1842
a(I442
F0.7828194206282136
tp1843
a(I443
F0.8255008436356773
tp1844
a(I459
F0.7404526463324643
tp1845
a(I460
F0.690527845014117
tp1846
a(I461
F0.6364903944049245
tp1847
a(I462
F0.5787462655151384
tp1848
a(I531
F0.5921482051821647
tp1849
a(I547
F0.6048223376357345
tp1850
a(I548
F0.5756133668716056
tp1851
aa(lp1852
(I85
F0.6303897252365711
tp1853
a(I86
F0.6356235544894766
tp1854
a(I87
F0.6381700773370729
tp1855
a(I88
F0.6383114085401643
tp1856
a(I89
F0.6361657508998243
tp1857
a(I90
F0.6316991276171549
tp1858
a(I91
F0.6249688768202345
tp1859
a(I441
F0.6305135626575576
tp1860
a(I442
F0.681624899004607
tp1861
a(I443
F0.7295282540602024
tp1862
a(I459
F0.8376934591374176
tp1863
a(I460
F0.7992121813112009
tp1864
a(I461
F0.7562586902690782
tp1865
a(I462
F0.7091363116777495
tp1866
a(I463
F0.6580957984093141
tp1867
a(I464
F0.6034417501602509
tp1868
a(I547
F0.5851831109985296
tp1869
a(I548
F0.5855709252840223
tp1870
a(I549
F0.5833566132606506
tp1871
aa(lp1872
(I88
F0.5535708968439187
tp1873
a(I89
F0.5799048156760732
tp1874
a(I90
F0.6037543461427675
tp1875
a(I91
F0.6242644160409261
tp1876
a(I437
F0.9310173289430794
tp1877
a(I438
F0.9399372018777996
tp1878
a(I439
F0.9440159656635839
tp1879
a(I440
F0.9432768978084881
tp1880
a(I441
F0.9377952589494589
tp1881
a(I442
F0.9276802153761975
tp1882
a(I443
F0.9130558242169715
tp1883
a(I526
F0.537173064825167
tp1884
a(I527
F0.5827816879858111
tp1885
a(I528
F0.6261310565935888
tp1886
a(I529
F0.6660056337340264
tp1887
a(I530
F0.7020872982267556
tp1888
a(I531
F0.7336937601353476
tp1889
a(I547
F0.6174887862182143
tp1890
a(I548
F0.5770677452300168
tp1891
aa(lp1892
(I85
F0.5456906943681824
tp1893
a(I86
F0.5816405777221282
tp1894
a(I87
F0.6155097264203674
tp1895
a(I88
F0.6463820688388067
tp1896
a(I89
F0.6739747274171711
tp1897
a(I90
F0.6977605269546977
tp1898
a(I91
F0.7176419312356387
tp1899
a(I420
F0.5728144825398899
tp1900
a(I421
F0.6136401465738308
tp1901
a(I437
F0.8610070980125714
tp1902
a(I438
F0.8469997934345636
tp1903
a(I439
F0.8297706695520062
tp1904
a(I440
F0.8092193656243983
tp1905
a(I441
F0.7856218402431429
tp1906
a(I442
F0.7592579422420389
tp1907
a(I443
F0.7302117004217278
tp1908
a(I531
F0.5390610817341227
tp1909
a(I838
F0.5353089279801102
tp1910
a(I839
F0.5646529838399181
tp1911
aa(lp1912
(I415
F0.9092185128387759
tp1913
a(I416
F0.9224276059489396
tp1914
a(I417
F0.9329580489720137
tp1915
a(I418
F0.940220676854392
tp1916
a(I419
F0.9443996638519289
tp1917
a(I420
F0.945633806252697
tp1918
a(I421
F0.9435629569279446
tp1919
a(I811
F0.7738702903135098
tp1920
a(I812
F0.8013248672919273
tp1921
a(I813
F0.8262916914932956
tp1922
a(I814
F0.8485960100056529
tp1923
a(I815
F0.8683181938643956
tp1924
a(I816
F0.8853202902522638
tp1925
a(I817
F0.8995542251102242
tp1926
a(I833
F0.7618695130910407
tp1927
a(I834
F0.7318681635936228
tp1928
a(I835
F0.6996818348890719
tp1929
a(I836
F0.6653544552554962
tp1930
a(I837
F0.6288279973614144
tp1931
aa(lp1932
(I393
F0.8270151813484162
tp1933
a(I394
F0.8501547296843394
tp1934
a(I395
F0.8710255296641188
tp1935
a(I396
F0.8894631144344775
tp1936
a(I397
F0.9052023844459953
tp1937
a(I398
F0.9182194972582679
tp1938
a(I399
F0.9286873629775976
tp1939
a(I415
F0.6384294456470592
tp1940
a(I416
F0.5938082439036851
tp1941
a(I789
F0.8013342042552565
tp1942
a(I790
F0.8289143955979918
tp1943
a(I791
F0.8542591950447211
tp1944
a(I792
F0.8772281314055603
tp1945
a(I793
F0.8976645339418329
tp1946
a(I794
F0.9153920897415301
tp1947
a(I795
F0.9301060790887852
tp1948
a(I811
F0.6929092511398828
tp1949
a(I812
F0.6482661376484836
tp1950
a(I813
F0.6016146416916969
tp1951
aa(lp1952
(I393
F0.9337054410337737
tp1953
a(I394
F0.9422549497978695
tp1954
a(I395
F0.9491192106148969
tp1955
a(I396
F0.9543973897421301
tp1956
a(I397
F0.9580391715153854
tp1957
a(I398
F0.9599768509601401
tp1958
a(I399
F0.9602147560434622
tp1959
a(I415
F0.710435402763364
tp1960
a(I416
F0.6845939007806552
tp1961
a(I417
F0.6585974282571431
tp1962
a(I772
F0.6412762303758821
tp1963
a(I773
F0.6712969780099421
tp1964
a(I789
F0.8963903493724432
tp1965
a(I790
F0.896829071827142
tp1966
a(I791
F0.8960607442927593
tp1967
a(I792
F0.8940102388728045
tp1968
a(I793
F0.8906619641620976
tp1969
a(I794
F0.8860656584912913
tp1970
a(I795
F0.8800332646241795
tp1971
aa(lp1972
(I371
F0.7308345696365162
tp1973
a(I372
F0.7412470800549907
tp1974
a(I373
F0.7503968573568096
tp1975
a(I374
F0.7582414849449005
tp1976
a(I375
F0.764593613901094
tp1977
a(I376
F0.7692296647642521
tp1978
a(I377
F0.7724134372849416
tp1979
a(I393
F0.5829781259425484
tp1980
a(I394
F0.5595778785142513
tp1981
a(I395
F0.5354194497135422
tp1982
a(I396
F0.5106782131781039
tp1983
a(I397
F0.4852904157789326
tp1984
a(I745
F0.5673307452192967
tp1985
a(I746
F0.5580098713150932
tp1986
a(I747
F0.5479701109853361
tp1987
a(I748
F0.5372240513808211
tp1988
a(I749
F0.5260625863146892
tp1989
a(I750
F0.5143629293672837
tp1990
a(I751
F0.5022532854687427
tp1991
aa(lp1992
(I349
F0.8213884878463756
tp1993
a(I350
F0.8394380537504624
tp1994
a(I351
F0.856300599028289
tp1995
a(I352
F0.8718453943519872
tp1996
a(I353
F0.8861270735206901
tp1997
a(I354
F0.8990156121950691
tp1998
a(I355
F0.9104612585565272
tp1999
a(I371
F0.8684682693750477
tp2000
a(I372
F0.8525238543148378
tp2001
a(I373
F0.8352089371963807
tp2002
a(I374
F0.8166383492071052
tp2003
a(I375
F0.7967916648725651
tp2004
a(I701
F0.8633039633610288
tp2005
a(I702
F0.8673118454196433
tp2006
a(I703
F0.8700256983779381
tp2007
a(I704
F0.87153303012446
tp2008
a(I705
F0.8716960788185889
tp2009
a(I706
F0.870726792696419
tp2010
a(I707
F0.8684794837322262
tp2011
aa(lp2012
(I327
F0.7934748009014034
tp2013
a(I328
F0.8147982871396692
tp2014
a(I329
F0.8349691437043917
tp2015
a(I330
F0.8537320334809005
tp2016
a(I331
F0.8710713894322182
tp2017
a(I332
F0.886753045713332
tp2018
a(I333
F0.901071550309739
tp2019
a(I349
F0.9047456268992816
tp2020
a(I350
F0.8908140675747448
tp2021
a(I351
F0.8754496365661067
tp2022
a(I352
F0.8585845092042995
tp2023
a(I353
F0.8404972783085929
tp2024
a(I354
F0.8209779757068358
tp2025
a(I355
F0.8000642847089553
tp2026
a(I663
F0.7967483746535778
tp2027
a(I679
F0.8209878405673072
tp2028
a(I680
F0.8104828322747285
tp2029
a(I681
F0.79871608825723
tp2030
a(I682
F0.7856619651760355
tp2031
aa(lp2032
(I311
F0.7172169182298009
tp2033
a(I327
F0.9238560833909393
tp2034
a(I328
F0.925812460804862
tp2035
a(I329
F0.9262544312866996
tp2036
a(I330
F0.925259413432577
tp2037
a(I331
F0.9230652098229672
tp2038
a(I332
F0.9193545009353205
tp2039
a(I333
F0.9142587123920228
tp2040
a(I638
F0.7130935021566949
tp2041
a(I639
F0.7269731934143999
tp2042
a(I640
F0.7400403987321856
tp2043
a(I641
F0.7524914003319829
tp2044
a(I657
F0.8390760669699548
tp2045
a(I658
F0.8360748356905501
tp2046
a(I659
F0.8322320026709336
tp2047
a(I660
F0.8273834774659976
tp2048
a(I661
F0.8216012478933072
tp2049
a(I662
F0.8149209128308286
tp2050
a(I663
F0.8072825431711531
tp2051
aa(lp2052
(I305
F0.905168566031238
tp2053
a(I306
F0.9084515683163153
tp2054
a(I307
F0.9108953553734812
tp2055
a(I308
F0.9125829763331015
tp2056
a(I309
F0.9134560926238929
tp2057
a(I310
F0.9135122616963263
tp2058
a(I311
F0.9128417063859308
tp2059
a(I613
F0.9148040164550502
tp2060
a(I614
F0.9185568589324999
tp2061
a(I615
F0.921627604401897
tp2062
a(I616
F0.9240265614775443
tp2063
a(I617
F0.9259147286623026
tp2064
a(I618
F0.9271364400214446
tp2065
a(I619
F0.9276257088170332
tp2066
a(I635
F0.8529475671265007
tp2067
a(I636
F0.8434209851122315
tp2068
a(I637
F0.8333425051644666
tp2069
a(I638
F0.8227029945853761
tp2070
a(I639
F0.8115670960857777
tp2071
aa(lp2072
(I305
F0.940189090320803
tp2073
a(I306
F0.9404257659177616
tp2074
a(I307
F0.9400298172540399
tp2075
a(I308
F0.938907302271741
tp2076
a(I309
F0.9369171718601912
tp2077
a(I310
F0.9342142852283445
tp2078
a(I311
F0.930897037685561
tp2079
a(I591
F0.918299093069418
tp2080
a(I592
F0.923533375562812
tp2081
a(I593
F0.9281453117008792
tp2082
a(I594
F0.9323520460691731
tp2083
a(I595
F0.9360025810914304
tp2084
a(I596
F0.9388591088070708
tp2085
a(I597
F0.9412456137408302
tp2086
a(I613
F0.8999010669599734
tp2087
a(I614
F0.8933360438602783
tp2088
a(I615
F0.8864929144908584
tp2089
a(I616
F0.8791803629794281
tp2090
a(I617
F0.8716178433255873
tp2091
aa(lp2092
(I305
F0.8654368947823361
tp2093
a(I306
F0.8635158376944793
tp2094
a(I307
F0.861102257222168
tp2095
a(I308
F0.8579689621597852
tp2096
a(I309
F0.8544363475082262
tp2097
a(I310
F0.8503717942011425
tp2098
a(I311
F0.8453258408471938
tp2099
a(I591
F0.9506554203453068
tp2100
a(I592
F0.9549299154494805
tp2101
a(I593
F0.9580987637902169
tp2102
a(I594
F0.9610648370083342
tp2103
a(I595
F0.9634778842402193
tp2104
a(I596
F0.9652163872364892
tp2105
a(I597
F0.9664977497018615
tp2106
a(I613
F0.8916995698979185
tp2107
a(I614
F0.8818054294673691
tp2108
a(I615
F0.8712586460431919
tp2109
a(I616
F0.8602566527452634
tp2110
a(I617
F0.8483981798330708
tp2111
aa(lp2112
(I266
F0.6605600621426503
tp2113
a(I267
F0.6678976191292683
tp2114
a(I283
F0.7631143081803609
tp2115
a(I284
F0.7669677657368291
tp2116
a(I285
F0.7711193903010687
tp2117
a(I286
F0.7745134239426639
tp2118
a(I287
F0.7777616653214208
tp2119
a(I288
F0.7798509031203023
tp2120
a(I289
F0.7816629848358647
tp2121
a(I305
F0.7607429805329396
tp2122
a(I306
F0.7544348849538496
tp2123
a(I307
F0.7478147413438662
tp2124
a(I308
F0.7397180539383372
tp2125
a(I309
F0.732608524762539
tp2126
a(I310
F0.7244788610170455
tp2127
a(I311
F0.7156328256149036
tp2128
a(I569
F0.6891138236022709
tp2129
a(I570
F0.6779095985090574
tp2130
a(I571
F0.6648544166642472
tp2131
aa(lp2132
(I769
F0.6127933421130779
tp2133
a(I770
F0.6166832465342033
tp2134
a(I771
F0.6160067298449745
tp2135
a(I772
F0.6184696071337791
tp2136
a(I773
F0.6233276004800771
tp2137
a(I789
F0.6724883935340321
tp2138
a(I790
F0.6757259479973327
tp2139
a(I791
F0.6792962764884024
tp2140
a(I792
F0.6792803718662246
tp2141
a(I793
F0.6804651022464476
tp2142
a(I794
F0.6803200937252524
tp2143
a(I795
F0.6833219330213339
tp2144
a(I811
F0.6544696130560375
tp2145
a(I812
F0.6502687476901154
tp2146
a(I813
F0.6443973279526579
tp2147
a(I814
F0.6337525605448013
tp2148
a(I815
F0.6269758820648874
tp2149
a(I816
F0.6194839139822916
tp2150
a(I817
F0.6111020708694913
tp2151
aa(lp2152
(I657
F0.7768282803136796
tp2153
a(I658
F0.7762179621125901
tp2154
a(I659
F0.7727817599271796
tp2155
a(I660
F0.7692771944651243
tp2156
a(I661
F0.7679587556880527
tp2157
a(I662
F0.764861620370105
tp2158
a(I663
F0.7625828691634646
tp2159
a(I679
F0.7100889301554659
tp2160
a(I680
F0.7089297734808214
tp2161
a(I681
F0.7038962142828618
tp2162
a(I682
F0.6959445906840722
tp2163
a(I683
F0.6982076059731834
tp2164
a(I684
F0.6945377065564969
tp2165
a(I685
F0.6847712449274154
tp2166
a(I701
F0.5695519119670166
tp2167
a(I702
F0.5613870032263878
tp2168
a(I703
F0.556729319987153
tp2169
a(I704
F0.556392003397199
tp2170
a(I705
F0.5416198476692591
tp2171
aa(lp2172
(I569
F0.1477513175477988
tp2173
a(I570
F0.1478221448959046
tp2174
a(I572
F0.1543370718996115
tp2175
a(I573
F0.14763019690064047
tp2176
a(I575
F0.15690915130791042
tp2177
a(I591
F0.1949442031898717
tp2178
a(I592
F0.18886839947335396
tp2179
a(I593
F0.18683792925080328
tp2180
a(I594
F0.19937537559002422
tp2181
a(I595
F0.20532460491132967
tp2182
a(I596
F0.2105937247457461
tp2183
a(I597
F0.20673055678286392
tp2184
a(I613
F0.22404803851049526
tp2185
a(I614
F0.22832715571455459
tp2186
a(I615
F0.22174677830482958
tp2187
a(I616
F0.2112361353085714
tp2188
a(I617
F0.22066420300130013
tp2189
a(I618
F0.22444013144829247
tp2190
a(I619
F0.21894992238583888
tp2191
aa(lp2192
(I746
F0.6179343765730035
tp2193
a(I748
F0.6299701378206465
tp2194
a(I749
F0.6403868920235513
tp2195
a(I750
F0.6406672181136973
tp2196
a(I751
F0.6524346592098667
tp2197
a(I767
F0.6890441221341369
tp2198
a(I768
F0.6916854665107453
tp2199
a(I769
F0.6914295640686422
tp2200
a(I770
F0.6970186734778202
tp2201
a(I771
F0.6975539851636507
tp2202
a(I772
F0.6979683942026326
tp2203
a(I773
F0.6993190276162893
tp2204
a(I789
F0.677598875658697
tp2205
a(I790
F0.6769071322663911
tp2206
a(I791
F0.6717661052281904
tp2207
a(I792
F0.6656757781201036
tp2208
a(I793
F0.6629978113159938
tp2209
a(I794
F0.6561355464383503
tp2210
a(I795
F0.6568350294948443
tp2211
aa(lp2212
(I745
F0.8813338286940842
tp2213
a(I746
F0.8890701116003376
tp2214
a(I747
F0.8843109112353642
tp2215
a(I748
F0.8832445620435226
tp2216
a(I749
F0.8818759150171541
tp2217
a(I750
F0.8833184366337465
tp2218
a(I751
F0.8760277946594746
tp2219
a(I767
F0.866272104823199
tp2220
a(I768
F0.8626711700726317
tp2221
a(I769
F0.8648744503880758
tp2222
a(I770
F0.8671949303336953
tp2223
a(I771
F0.8607032705176682
tp2224
a(I772
F0.8630196196538811
tp2225
a(I773
F0.8611101233521902
tp2226
a(I789
F0.8431686038903071
tp2227
a(I790
F0.8391484559865545
tp2228
a(I791
F0.8399518209708614
tp2229
a(I792
F0.8447825588722082
tp2230
a(I794
F0.8371534942171532
tp2231
aa(lp2232
(I682
F0.8704817615134812
tp2233
a(I683
F0.8785248692716808
tp2234
a(I684
F0.8846489248209736
tp2235
a(I685
F0.8884240958868354
tp2236
a(I701
F0.9239364449992844
tp2237
a(I702
F0.9242135001165196
tp2238
a(I703
F0.926451314803362
tp2239
a(I704
F0.9290340923731617
tp2240
a(I705
F0.9315759661349358
tp2241
a(I706
F0.9318012362212831
tp2242
a(I707
F0.928932947941512
tp2243
a(I723
F0.9141999239864632
tp2244
a(I724
F0.914183108013845
tp2245
a(I725
F0.9167975976750095
tp2246
a(I726
F0.9216742141498924
tp2247
a(I727
F0.9115482163400691
tp2248
a(I728
F0.907595720361679
tp2249
a(I729
F0.9091761531108716
tp2250
a(I745
F0.8720716517645031
tp2251
aa(lp2252
(I662
F0.774087867844214
tp2253
a(I679
F0.82049819809573
tp2254
a(I680
F0.8246441805188235
tp2255
a(I681
F0.81979209145463
tp2256
a(I682
F0.8159591667754559
tp2257
a(I683
F0.8179675298570039
tp2258
a(I684
F0.8197283276617524
tp2259
a(I685
F0.8096356464721995
tp2260
a(I701
F0.8252422187450652
tp2261
a(I702
F0.8177361358378227
tp2262
a(I703
F0.8155085237788291
tp2263
a(I704
F0.8159131627235511
tp2264
a(I705
F0.8157108534840957
tp2265
a(I706
F0.8153096536794525
tp2266
a(I707
F0.8145114230596573
tp2267
a(I723
F0.7821879378132113
tp2268
a(I724
F0.7744750717598163
tp2269
a(I726
F0.7758082064988274
tp2270
a(I727
F0.778590692586156
tp2271
aa(lp2272
(I85
F0.2432147994935299
tp2273
a(I86
F0.25679389836951916
tp2274
a(I87
F0.2546865051813715
tp2275
a(I88
F0.2442916056894971
tp2276
a(I89
F0.2516952875792013
tp2277
a(I90
F0.24480355837891973
tp2278
a(I91
F0.2503737924920639
tp2279
a(I789
F0.2454586330523593
tp2280
a(I792
F0.24867438580257367
tp2281
a(I793
F0.2453910415170186
tp2282
a(I794
F0.24309522604834066
tp2283
a(I795
F0.24924230873279285
tp2284
a(I811
F0.24337201892506433
tp2285
a(I812
F0.24768213411644716
tp2286
a(I813
F0.25258335765550227
tp2287
a(I814
F0.24578114429705486
tp2288
a(I815
F0.24486937457879032
tp2289
a(I816
F0.25197268488588903
tp2290
a(I817
F0.24861720458347544
tp2291
aa(lp2292
(I723
F0.36679772634209196
tp2293
a(I725
F0.36758621651688606
tp2294
a(I727
F0.37715197951649687
tp2295
a(I728
F0.3813530636947191
tp2296
a(I729
F0.37310095111246155
tp2297
a(I745
F0.4522836697218355
tp2298
a(I746
F0.45084559950348163
tp2299
a(I747
F0.4608214362771459
tp2300
a(I748
F0.4584133462079383
tp2301
a(I749
F0.45792376602503354
tp2302
a(I750
F0.46113544362260495
tp2303
a(I751
F0.468459315691674
tp2304
a(I767
F0.5293859658072846
tp2305
a(I768
F0.5472261240781018
tp2306
a(I769
F0.5421869730596568
tp2307
a(I770
F0.5441074897586152
tp2308
a(I771
F0.557023231706924
tp2309
a(I772
F0.5631224778932339
tp2310
a(I773
F0.5638258732067164
tp2311
aa(lp2312
(I701
F0.8419147665369245
tp2313
a(I702
F0.8410085161965921
tp2314
a(I703
F0.8414468806356763
tp2315
a(I704
F0.837138691389108
tp2316
a(I705
F0.8403572343193746
tp2317
a(I706
F0.8409406347054402
tp2318
a(I707
F0.8420413103090916
tp2319
a(I723
F0.8324888522031046
tp2320
a(I724
F0.8284430295582745
tp2321
a(I725
F0.8302923646250037
tp2322
a(I726
F0.8317331327015342
tp2323
a(I727
F0.8306559007649175
tp2324
a(I728
F0.8272671132110229
tp2325
a(I729
F0.8209161504166234
tp2326
a(I745
F0.7853636964333276
tp2327
a(I746
F0.7811619370803425
tp2328
a(I747
F0.780817137697509
tp2329
a(I748
F0.7796908028339331
tp2330
a(I749
F0.7750625998723554
tp2331
aa(lp2332
(I747
F0.8203119322455329
tp2333
a(I748
F0.8243675345687234
tp2334
a(I749
F0.8282012600313403
tp2335
a(I750
F0.8325416440957291
tp2336
a(I751
F0.83114595774989
tp2337
a(I767
F0.8466770034771383
tp2338
a(I768
F0.8497701404541248
tp2339
a(I769
F0.8469149690216149
tp2340
a(I770
F0.8473407857097034
tp2341
a(I771
F0.843074941954855
tp2342
a(I772
F0.844625069664664
tp2343
a(I773
F0.8476823715269671
tp2344
a(I789
F0.8238635958843261
tp2345
a(I790
F0.8242377788831201
tp2346
a(I791
F0.8253583501410698
tp2347
a(I792
F0.8247567376955692
tp2348
a(I793
F0.8268608661777586
tp2349
a(I794
F0.825257267889725
tp2350
a(I795
F0.818949690054885
tp2351
aa(lp2352
(I662
F0.846081389116268
tp2353
a(I663
F0.8498899191210842
tp2354
a(I679
F0.8745889314303887
tp2355
a(I680
F0.8820718060705929
tp2356
a(I681
F0.8779776531024232
tp2357
a(I682
F0.878982491984145
tp2358
a(I683
F0.8771831361991558
tp2359
a(I684
F0.8752425048250945
tp2360
a(I685
F0.8846475632945036
tp2361
a(I701
F0.8697346670811511
tp2362
a(I702
F0.8775866986796037
tp2363
a(I703
F0.8728764349725803
tp2364
a(I704
F0.8685250704093547
tp2365
a(I705
F0.8715071276664913
tp2366
a(I706
F0.8720657529548858
tp2367
a(I707
F0.867010358399567
tp2368
a(I725
F0.8498968873916576
tp2369
a(I726
F0.8455558248447873
tp2370
a(I728
F0.8476501777589858
tp2371
aa(lp2372
(I767
F0.42799324196460076
tp2373
a(I768
F0.43965763784414147
tp2374
a(I769
F0.4401291997602269
tp2375
a(I770
F0.44865695896513186
tp2376
a(I771
F0.46445969841529033
tp2377
a(I772
F0.4551798422030741
tp2378
a(I773
F0.4399880734606049
tp2379
a(I789
F0.41528718398422754
tp2380
a(I790
F0.4317215382881298
tp2381
a(I791
F0.4200549259325823
tp2382
a(I793
F0.413129445912669
tp2383
a(I795
F0.4100135694638263
tp2384
a(I811
F0.4302952987056845
tp2385
a(I812
F0.4153028230009119
tp2386
a(I813
F0.4172048222413816
tp2387
a(I815
F0.4172964228456573
tp2388
a(I816
F0.42371901642711857
tp2389
a(I817
F0.41517803298057837
tp2390
a(I833
F0.42814791948213493
tp2391
aa(lp2392
(I723
F0.8377285903199655
tp2393
a(I724
F0.8329410958912886
tp2394
a(I725
F0.8398171556189499
tp2395
a(I726
F0.8321959734254379
tp2396
a(I727
F0.8343568131018902
tp2397
a(I728
F0.844243684640451
tp2398
a(I729
F0.836113116323202
tp2399
a(I745
F0.8257395420721435
tp2400
a(I746
F0.8301018729023566
tp2401
a(I747
F0.8270111350038143
tp2402
a(I748
F0.8332834790993625
tp2403
a(I749
F0.8371221593919304
tp2404
a(I750
F0.8183564181007246
tp2405
a(I751
F0.8101801052116211
tp2406
a(I767
F0.7764018452524017
tp2407
a(I768
F0.7667199303232486
tp2408
a(I769
F0.7615582299575425
tp2409
a(I770
F0.7618668865614069
tp2410
a(I771
F0.7679835224211753
tp2411
aa(lp2412
(I767
F0.8128760901447809
tp2413
a(I768
F0.8126600268764569
tp2414
a(I769
F0.8152904899184458
tp2415
a(I770
F0.8122557526450901
tp2416
a(I771
F0.8156508159495207
tp2417
a(I772
F0.8169630864698186
tp2418
a(I773
F0.8135370673778167
tp2419
a(I789
F0.8436856599928132
tp2420
a(I790
F0.844012368888601
tp2421
a(I791
F0.8474739597152601
tp2422
a(I792
F0.8476576614632163
tp2423
a(I793
F0.8433136682238096
tp2424
a(I794
F0.8376198241272929
tp2425
a(I795
F0.8371089995112759
tp2426
a(I833
F0.7948104392369701
tp2427
a(I834
F0.7982207871505516
tp2428
a(I835
F0.7975323803406702
tp2429
a(I836
F0.7905201511074459
tp2430
a(I837
F0.7919165276697161
tp2431
aa(lp2432
(I635
F0.8794899060308559
tp2433
a(I636
F0.8741249461926153
tp2434
a(I637
F0.8677697327997813
tp2435
a(I638
F0.863349603263826
tp2436
a(I639
F0.8695387706133924
tp2437
a(I640
F0.8656775954639648
tp2438
a(I641
F0.8627559015006899
tp2439
a(I657
F0.8297511887375931
tp2440
a(I658
F0.828357223170147
tp2441
a(I659
F0.823728938714165
tp2442
a(I660
F0.8236028584181633
tp2443
a(I661
F0.8235042000025835
tp2444
a(I662
F0.8180505511696043
tp2445
a(I663
F0.8138186706690722
tp2446
a(I679
F0.7749071064121552
tp2447
a(I680
F0.7731536411744013
tp2448
a(I681
F0.7669312048364819
tp2449
a(I682
F0.7634905167818912
tp2450
a(I683
F0.7605969614622337
tp2451
aa(lp2452
(I701
F0.358516362588842
tp2453
a(I702
F0.35926953912303905
tp2454
a(I703
F0.3709764054556374
tp2455
a(I704
F0.373931825059174
tp2456
a(I705
F0.371889134185127
tp2457
a(I706
F0.37091222866576956
tp2458
a(I707
F0.3713394116795837
tp2459
a(I723
F0.371808953733729
tp2460
a(I724
F0.3713941108169117
tp2461
a(I725
F0.3702656082717873
tp2462
a(I726
F0.3719327866875779
tp2463
a(I727
F0.3754206671729812
tp2464
a(I728
F0.3760538696143525
tp2465
a(I729
F0.38431552120694434
tp2466
a(I745
F0.35215575739741034
tp2467
a(I746
F0.3577273896386231
tp2468
a(I747
F0.35662744902782034
tp2469
a(I748
F0.3509110364510573
tp2470
a(I749
F0.35154284443787215
tp2471
aa(lp2472
(I663
F0.48450686246900915
tp2473
a(I680
F0.48469315032571103
tp2474
a(I681
F0.4909890419555381
tp2475
a(I682
F0.4923603259204998
tp2476
a(I683
F0.4924104382743156
tp2477
a(I684
F0.49510052590797377
tp2478
a(I685
F0.5063662833260983
tp2479
a(I701
F0.5121613054276791
tp2480
a(I702
F0.50845680690205
tp2481
a(I703
F0.5059054581179238
tp2482
a(I704
F0.5072251652890092
tp2483
a(I705
F0.5091965352880345
tp2484
a(I706
F0.5066430699660394
tp2485
a(I707
F0.5053908268062705
tp2486
a(I723
F0.49190872151320153
tp2487
a(I724
F0.509579145077199
tp2488
a(I725
F0.4932464574009625
tp2489
a(I727
F0.4909781237765319
tp2490
a(I728
F0.4874957897617641
tp2491
aa(lp2492
(I723
F0.6192821799123857
tp2493
a(I724
F0.6138214184718743
tp2494
a(I725
F0.6153657378476743
tp2495
a(I726
F0.6180836007975167
tp2496
a(I727
F0.6279014075371292
tp2497
a(I728
F0.6288278863928202
tp2498
a(I729
F0.6337761452473455
tp2499
a(I745
F0.6395951290451486
tp2500
a(I746
F0.6415714902204624
tp2501
a(I747
F0.6393300759664909
tp2502
a(I748
F0.6307246189524245
tp2503
a(I749
F0.633182041100727
tp2504
a(I750
F0.6351382312622172
tp2505
a(I751
F0.6247129856906549
tp2506
a(I767
F0.609337762133081
tp2507
a(I768
F0.60998545993921
tp2508
a(I769
F0.60629228590463
tp2509
a(I770
F0.6014817566190737
tp2510
a(I771
F0.6085542578060323
tp2511
aa(lp2512
(I745
F0.8950004597727178
tp2513
a(I746
F0.9054765982458979
tp2514
a(I747
F0.9035707643508442
tp2515
a(I748
F0.8954726403555577
tp2516
a(I749
F0.8989823562900349
tp2517
a(I750
F0.901766233508717
tp2518
a(I751
F0.9033510058358251
tp2519
a(I767
F0.9191781112235426
tp2520
a(I768
F0.9157371606913287
tp2521
a(I769
F0.9224482260340162
tp2522
a(I770
F0.9205854562616553
tp2523
a(I771
F0.9166669032043399
tp2524
a(I772
F0.919136489274868
tp2525
a(I773
F0.913631173911891
tp2526
a(I789
F0.8807921611425874
tp2527
a(I790
F0.8711633327232685
tp2528
a(I791
F0.8720555680282495
tp2529
a(I792
F0.8721881930570865
tp2530
a(I795
F0.8664757427855008
tp2531
aa(lp2532
(I703
F0.9108397792783277
tp2533
a(I704
F0.9089667091330931
tp2534
a(I705
F0.912005224963652
tp2535
a(I706
F0.9156147548302758
tp2536
a(I707
F0.9128498688542236
tp2537
a(I723
F0.9383234524787971
tp2538
a(I724
F0.931545998482167
tp2539
a(I725
F0.9390041516604481
tp2540
a(I726
F0.9406149438883398
tp2541
a(I727
F0.9422608755077759
tp2542
a(I728
F0.9442487632028829
tp2543
a(I729
F0.9448265321340077
tp2544
a(I745
F0.9190917904691084
tp2545
a(I746
F0.9181255916381951
tp2546
a(I747
F0.9163524009727777
tp2547
a(I748
F0.9098114137081084
tp2548
a(I749
F0.9106575057565568
tp2549
a(I750
F0.9076923924053174
tp2550
a(I751
F0.910834136452724
tp2551
aa(lp2552
(I701
F0.8473804581937048
tp2553
a(I703
F0.8551019194082287
tp2554
a(I704
F0.8468697835091478
tp2555
a(I705
F0.8524210955325007
tp2556
a(I706
F0.8549421529738396
tp2557
a(I707
F0.8550318572085189
tp2558
a(I723
F0.8846733839798602
tp2559
a(I724
F0.8887294017085061
tp2560
a(I725
F0.8853518419510339
tp2561
a(I726
F0.8830105140429203
tp2562
a(I727
F0.8940635771850838
tp2563
a(I728
F0.8993452757756664
tp2564
a(I729
F0.8931835983573593
tp2565
a(I745
F0.877325230109421
tp2566
a(I746
F0.8700175975173597
tp2567
a(I747
F0.8644510178213932
tp2568
a(I748
F0.8664819676735499
tp2569
a(I749
F0.8517381253482823
tp2570
a(I750
F0.8532780668997456
tp2571
aa(lp2572
(I723
F0.6462115850664523
tp2573
a(I724
F0.6182859411262221
tp2574
a(I725
F0.6348477126155605
tp2575
a(I726
F0.649713862591082
tp2576
a(I727
F0.6706464309434448
tp2577
a(I728
F0.6473333963893004
tp2578
a(I729
F0.6385045459185156
tp2579
a(I745
F0.6520290606591247
tp2580
a(I746
F0.6615099855332169
tp2581
a(I747
F0.6457084440763977
tp2582
a(I748
F0.6433808181712707
tp2583
a(I749
F0.6442276858812088
tp2584
a(I750
F0.6434917918596954
tp2585
a(I751
F0.6603924062289949
tp2586
a(I767
F0.5745304506976882
tp2587
a(I768
F0.568313808365269
tp2588
a(I769
F0.5677434171133208
tp2589
a(I771
F0.5616582546589101
tp2590
a(I772
F0.5492876167760515
tp2591
aa(lp2592
(I723
F0.7686774299971569
tp2593
a(I724
F0.7737411388083351
tp2594
a(I725
F0.7808622766027555
tp2595
a(I726
F0.7825987397352389
tp2596
a(I727
F0.7749835088968661
tp2597
a(I728
F0.7883203481953425
tp2598
a(I729
F0.7756786961804816
tp2599
a(I745
F0.7990764816789938
tp2600
a(I746
F0.7977801767218274
tp2601
a(I747
F0.7934072265594134
tp2602
a(I748
F0.7813274049484574
tp2603
a(I749
F0.7694396716224002
tp2604
a(I750
F0.780915968799733
tp2605
a(I751
F0.776890606909095
tp2606
a(I767
F0.7573979863923962
tp2607
a(I768
F0.7450514944066005
tp2608
a(I769
F0.7415568881834712
tp2609
a(I770
F0.7466924251746572
tp2610
a(I771
F0.7412237583978156
tp2611
aa(lp2612
(I751
F0.8428049140873202
tp2613
a(I767
F0.8851975777896867
tp2614
a(I768
F0.8860867844425797
tp2615
a(I769
F0.8903670523477302
tp2616
a(I770
F0.878790369779646
tp2617
a(I771
F0.8798039546663283
tp2618
a(I772
F0.8845746420288312
tp2619
a(I773
F0.887351899066414
tp2620
a(I789
F0.878572483380746
tp2621
a(I790
F0.887100442297867
tp2622
a(I791
F0.8796684064669248
tp2623
a(I792
F0.8815524665053268
tp2624
a(I793
F0.8900334029692591
tp2625
a(I794
F0.8821178252912301
tp2626
a(I795
F0.8793525060003309
tp2627
a(I811
F0.8446285160441219
tp2628
a(I813
F0.8448440954298744
tp2629
a(I814
F0.8454222102473178
tp2630
a(I816
F0.8455505003857616
tp2631
aa(lp2632
(I679
F0.9110947296130057
tp2633
a(I680
F0.9091937318500873
tp2634
a(I681
F0.9085947572824156
tp2635
a(I682
F0.9104916105845317
tp2636
a(I683
F0.9130431444954487
tp2637
a(I684
F0.9121446977423786
tp2638
a(I685
F0.91404428951917
tp2639
a(I701
F0.9185874300761906
tp2640
a(I702
F0.9210800427298019
tp2641
a(I703
F0.9186934921041165
tp2642
a(I704
F0.9172325452318841
tp2643
a(I705
F0.9184629969891359
tp2644
a(I706
F0.9148735524343692
tp2645
a(I707
F0.9109285276850001
tp2646
a(I723
F0.892738201471777
tp2647
a(I724
F0.8916706940582699
tp2648
a(I725
F0.8860630005995408
tp2649
a(I726
F0.8860047325037225
tp2650
a(I727
F0.887461123281002
tp2651
aa(lp2652
(I703
F0.870141743961227
tp2653
a(I704
F0.8697795065176291
tp2654
a(I705
F0.8735279977030008
tp2655
a(I706
F0.8701768669284644
tp2656
a(I707
F0.8802508722114707
tp2657
a(I723
F0.8996110971151942
tp2658
a(I724
F0.9008953654109081
tp2659
a(I725
F0.9001788745147545
tp2660
a(I726
F0.8999397784374735
tp2661
a(I727
F0.9085129410306263
tp2662
a(I728
F0.9055795490659098
tp2663
a(I729
F0.9096241783513708
tp2664
a(I745
F0.8991837990337735
tp2665
a(I746
F0.8992589082047101
tp2666
a(I747
F0.9067284550096794
tp2667
a(I748
F0.8987617256497896
tp2668
a(I749
F0.8991977728701421
tp2669
a(I750
F0.8960449362467666
tp2670
a(I751
F0.8874108500386133
tp2671
aa(lp2672
(I701
F0.3949139036696782
tp2673
a(I704
F0.39269047189147394
tp2674
a(I705
F0.41176109942933536
tp2675
a(I706
F0.40173517077976867
tp2676
a(I707
F0.39555262221346654
tp2677
a(I723
F0.41950073475822325
tp2678
a(I724
F0.4279671801042239
tp2679
a(I725
F0.43055506110126607
tp2680
a(I726
F0.43062445329589943
tp2681
a(I727
F0.4354020265708353
tp2682
a(I728
F0.4334654408302187
tp2683
a(I729
F0.4113943032045799
tp2684
a(I745
F0.43321852649953185
tp2685
a(I746
F0.41558810024718656
tp2686
a(I747
F0.42165842387355795
tp2687
a(I748
F0.41897855940865913
tp2688
a(I749
F0.41712335404944756
tp2689
a(I750
F0.4198101858764876
tp2690
a(I751
F0.400837846667864
tp2691
aa(lp2692
(I723
F0.682164510837452
tp2693
a(I725
F0.6812552943309356
tp2694
a(I726
F0.6844235823424152
tp2695
a(I728
F0.6907200266418212
tp2696
a(I729
F0.703711293794826
tp2697
a(I745
F0.7231676075551328
tp2698
a(I746
F0.7308551633686832
tp2699
a(I747
F0.7315318102377534
tp2700
a(I748
F0.7286046904296626
tp2701
a(I749
F0.7257658343982503
tp2702
a(I750
F0.7242426967244469
tp2703
a(I751
F0.7366178242110478
tp2704
a(I767
F0.7189185626011881
tp2705
a(I768
F0.7105864193148118
tp2706
a(I769
F0.7106898121743799
tp2707
a(I770
F0.7129487932106585
tp2708
a(I771
F0.717576893125952
tp2709
a(I772
F0.7054808693668103
tp2710
a(I773
F0.7077772469464675
tp2711
aa(lp2712
(I681
F0.8765693963404112
tp2713
a(I682
F0.8801951067499235
tp2714
a(I683
F0.8776625834721159
tp2715
a(I684
F0.8858239901618347
tp2716
a(I685
F0.8889627452490867
tp2717
a(I701
F0.9089447223953491
tp2718
a(I702
F0.9073376686041713
tp2719
a(I703
F0.9137839421058895
tp2720
a(I704
F0.9125432428226128
tp2721
a(I705
F0.910883731037483
tp2722
a(I706
F0.9166208929917548
tp2723
a(I707
F0.9164900321452217
tp2724
a(I723
F0.9191774102877068
tp2725
a(I724
F0.9131559781468024
tp2726
a(I725
F0.9144232519409499
tp2727
a(I726
F0.9138569480440792
tp2728
a(I727
F0.914353423491618
tp2729
a(I728
F0.9108513401685305
tp2730
a(I729
F0.900896561073442
tp2731
aa(lp2732
(I725
F0.851895446248475
tp2733
a(I726
F0.8502782048990242
tp2734
a(I727
F0.8525175964146697
tp2735
a(I728
F0.8512353886274707
tp2736
a(I729
F0.8590127533969264
tp2737
a(I745
F0.8886873711114801
tp2738
a(I746
F0.8810157752995709
tp2739
a(I747
F0.8834867284891811
tp2740
a(I748
F0.8904889189324868
tp2741
a(I749
F0.887851024556131
tp2742
a(I750
F0.8906672767361008
tp2743
a(I751
F0.8852980520922874
tp2744
a(I767
F0.8813814786941915
tp2745
a(I768
F0.8766217276952835
tp2746
a(I769
F0.8794009199121834
tp2747
a(I770
F0.8850897756295896
tp2748
a(I771
F0.8772532779192936
tp2749
a(I772
F0.8674034897108733
tp2750
a(I773
F0.8696306754963086
tp2751
aa(lp2752
(I635
F0.8081716726775687
tp2753
a(I636
F0.8054488135773596
tp2754
a(I637
F0.7998318768201
tp2755
a(I640
F0.8154781438276685
tp2756
a(I641
F0.8133683944142437
tp2757
a(I657
F0.8225584131758662
tp2758
a(I658
F0.8255437872624289
tp2759
a(I659
F0.8225991295854279
tp2760
a(I660
F0.8356396979007146
tp2761
a(I661
F0.832065579639332
tp2762
a(I662
F0.830505894317089
tp2763
a(I663
F0.8264905728182983
tp2764
a(I679
F0.8243518651516754
tp2765
a(I680
F0.8240059283753686
tp2766
a(I681
F0.8220117029880355
tp2767
a(I682
F0.8202305778245228
tp2768
a(I683
F0.8210664866955982
tp2769
a(I684
F0.8207302713459977
tp2770
a(I685
F0.8089286102676616
tp2771
aa(lp2772
(I723
F0.46558567889089136
tp2773
a(I724
F0.46558567889089114
tp2774
a(I725
F0.4738500688663628
tp2775
a(I726
F0.46558567889089086
tp2776
a(I727
F0.49523377991309603
tp2777
a(I728
F0.4814981255288542
tp2778
a(I729
F0.4842494004656456
tp2779
a(I745
F0.5110366391865185
tp2780
a(I746
F0.4888993700565489
tp2781
a(I747
F0.48760332108634774
tp2782
a(I748
F0.49774936764978656
tp2783
a(I749
F0.48662013879734367
tp2784
a(I750
F0.48882815879524716
tp2785
a(I751
F0.49258848133992555
tp2786
a(I767
F0.40713232870598337
tp2787
a(I768
F0.414262782569713
tp2788
a(I769
F0.39913737670964805
tp2789
a(I770
F0.40389162497903436
tp2790
a(I772
F0.38820888765549166
tp2791
aa(lp2792
(I725
F0.7071696706631543
tp2793
a(I726
F0.704047833346808
tp2794
a(I727
F0.721818258595451
tp2795
a(I728
F0.7242116084137803
tp2796
a(I729
F0.7229980812594142
tp2797
a(I745
F0.7888581198255145
tp2798
a(I746
F0.7844801150620903
tp2799
a(I747
F0.7762813556541767
tp2800
a(I748
F0.7837465086668616
tp2801
a(I749
F0.8137413796906527
tp2802
a(I750
F0.8007943458843295
tp2803
a(I751
F0.7940704714142792
tp2804
a(I767
F0.7451686875678375
tp2805
a(I768
F0.7525025191218593
tp2806
a(I769
F0.7589061418239446
tp2807
a(I770
F0.7462136944771119
tp2808
a(I771
F0.7352784848098197
tp2809
a(I772
F0.7359263149218305
tp2810
a(I773
F0.7278874148181883
tp2811
aa(lp2812
(I723
F0.8705143671614183
tp2813
a(I724
F0.8722853197832177
tp2814
a(I725
F0.87224082163687
tp2815
a(I726
F0.8803912835312699
tp2816
a(I727
F0.8767294110651401
tp2817
a(I728
F0.8796603323524339
tp2818
a(I729
F0.8883264077456089
tp2819
a(I745
F0.8863613858094357
tp2820
a(I746
F0.8858841160743022
tp2821
a(I747
F0.8940146113490619
tp2822
a(I748
F0.8861622746116269
tp2823
a(I749
F0.8900038645000002
tp2824
a(I750
F0.8935888844862233
tp2825
a(I751
F0.8902234354008703
tp2826
a(I767
F0.8560366304771471
tp2827
a(I769
F0.854987157258104
tp2828
a(I770
F0.855216520977319
tp2829
a(I771
F0.8489812419363776
tp2830
a(I772
F0.8479742546016487
tp2831
aa(lp2832
(I724
F0.8553827350752479
tp2833
a(I726
F0.8561882719834827
tp2834
a(I727
F0.8660349799723452
tp2835
a(I728
F0.8706056339640714
tp2836
a(I729
F0.8742839309682204
tp2837
a(I745
F0.8890134130139392
tp2838
a(I746
F0.8896914661761128
tp2839
a(I747
F0.8938795972243158
tp2840
a(I748
F0.9017290492279224
tp2841
a(I749
F0.8979856059964407
tp2842
a(I750
F0.898356697894124
tp2843
a(I751
F0.8978020727102202
tp2844
a(I767
F0.8757410008368062
tp2845
a(I768
F0.8737530242707461
tp2846
a(I769
F0.8719226900376922
tp2847
a(I770
F0.8714324550018332
tp2848
a(I771
F0.87293628151208
tp2849
a(I772
F0.8672933592162515
tp2850
a(I773
F0.8610734481955732
tp2851
aa(lp2852
(I681
F0.8595502822490928
tp2853
a(I682
F0.8639361911144985
tp2854
a(I683
F0.8643477765029283
tp2855
a(I684
F0.8636415963649497
tp2856
a(I685
F0.866154322736165
tp2857
a(I701
F0.9040767531042898
tp2858
a(I702
F0.9013048323865364
tp2859
a(I703
F0.896846483848283
tp2860
a(I704
F0.8960185729108328
tp2861
a(I705
F0.8932873484734268
tp2862
a(I706
F0.8984248320002991
tp2863
a(I707
F0.8972674590851895
tp2864
a(I723
F0.9112499166454281
tp2865
a(I724
F0.9062381317036652
tp2866
a(I725
F0.9028786631125092
tp2867
a(I726
F0.897348366056305
tp2868
a(I727
F0.8941998308150764
tp2869
a(I728
F0.8873255215427652
tp2870
a(I729
F0.8785398931999127
tp2871
aa(lp2872
(I703
F0.5189174271002998
tp2873
a(I706
F0.5209136933815378
tp2874
a(I723
F0.605122751091057
tp2875
a(I724
F0.6071797842685279
tp2876
a(I725
F0.5894486774295552
tp2877
a(I726
F0.6079499488879662
tp2878
a(I727
F0.6009840074295686
tp2879
a(I728
F0.6028631985787856
tp2880
a(I729
F0.594306779659721
tp2881
a(I745
F0.6281162020989938
tp2882
a(I746
F0.6400176115093035
tp2883
a(I747
F0.6383174101649736
tp2884
a(I748
F0.624221685950982
tp2885
a(I749
F0.6136420103436744
tp2886
a(I750
F0.6149085907043261
tp2887
a(I751
F0.6165847552723367
tp2888
a(I767
F0.5456297789678352
tp2889
a(I768
F0.5180082098504832
tp2890
a(I770
F0.5290912305180894
tp2891
aa(lp2892
(I745
F0.7229660024759932
tp2893
a(I746
F0.7188923291636753
tp2894
a(I747
F0.7408125378752586
tp2895
a(I748
F0.7469176960654751
tp2896
a(I749
F0.7332308317663281
tp2897
a(I750
F0.7343359300809348
tp2898
a(I751
F0.7369447566700622
tp2899
a(I767
F0.7067768919579557
tp2900
a(I768
F0.714508711173445
tp2901
a(I769
F0.7153664254987908
tp2902
a(I770
F0.71735901360474
tp2903
a(I771
F0.7328832685380133
tp2904
a(I772
F0.7176315052834952
tp2905
a(I773
F0.7080843194734613
tp2906
a(I789
F0.6982998318493128
tp2907
a(I791
F0.6903051041932148
tp2908
a(I792
F0.6906129272255874
tp2909
a(I793
F0.6942670065500018
tp2910
a(I794
F0.691931970510737
tp2911
aa(lp2912
(I681
F0.8619064701482181
tp2913
a(I682
F0.8644527024399431
tp2914
a(I683
F0.8596147275696775
tp2915
a(I684
F0.8608605442538451
tp2916
a(I685
F0.8644572649987998
tp2917
a(I701
F0.8890098255317703
tp2918
a(I702
F0.8989296445281206
tp2919
a(I703
F0.8995943007457023
tp2920
a(I704
F0.8913081924810794
tp2921
a(I705
F0.8912856954414053
tp2922
a(I706
F0.8989111846214062
tp2923
a(I707
F0.8983980994597428
tp2924
a(I723
F0.8983351486526493
tp2925
a(I724
F0.8941501610943091
tp2926
a(I725
F0.8951517933254417
tp2927
a(I726
F0.8889432484264235
tp2928
a(I727
F0.8903859432581632
tp2929
a(I728
F0.8898874234768441
tp2930
a(I729
F0.8867154302733944
tp2931
aa(lp2932
(I701
F0.896448815646564
tp2933
a(I702
F0.8972686245896907
tp2934
a(I703
F0.8979793324111479
tp2935
a(I704
F0.9046533733598541
tp2936
a(I705
F0.9049338797096965
tp2937
a(I706
F0.9075827548970361
tp2938
a(I707
F0.9056075601341587
tp2939
a(I723
F0.9335233867956145
tp2940
a(I724
F0.9365169943684811
tp2941
a(I725
F0.9302315961486798
tp2942
a(I726
F0.9303139544376331
tp2943
a(I727
F0.9292243285076033
tp2944
a(I728
F0.9326300386931512
tp2945
a(I729
F0.9375508346494023
tp2946
a(I745
F0.9050046075313783
tp2947
a(I746
F0.9052289934072199
tp2948
a(I747
F0.9004045558533339
tp2949
a(I748
F0.9005798385343545
tp2950
a(I749
F0.8966824193634402
tp2951
aa(lp2952
(I684
F0.7496743759542406
tp2953
a(I685
F0.7477667301190575
tp2954
a(I701
F0.8118901143554523
tp2955
a(I702
F0.8089282531571473
tp2956
a(I703
F0.8174286524784549
tp2957
a(I704
F0.8065760973484848
tp2958
a(I705
F0.817152169334734
tp2959
a(I706
F0.8239469834984191
tp2960
a(I707
F0.8212505113046623
tp2961
a(I723
F0.842755615137247
tp2962
a(I724
F0.8564515835302038
tp2963
a(I725
F0.8389915152873698
tp2964
a(I726
F0.834594240569006
tp2965
a(I727
F0.8386429394161025
tp2966
a(I728
F0.8494021460416831
tp2967
a(I729
F0.8471171689468272
tp2968
a(I745
F0.770555948767946
tp2969
a(I746
F0.7707806012309091
tp2970
a(I747
F0.7517896665193639
tp2971
aa(lp2972
(I702
F0.4349649303277329
tp2973
a(I703
F0.42573350939097065
tp2974
a(I704
F0.4321162661451313
tp2975
a(I705
F0.4332933388454289
tp2976
a(I706
F0.43713574498854535
tp2977
a(I723
F0.49984929530386546
tp2978
a(I724
F0.48232874108884244
tp2979
a(I725
F0.5034738273319229
tp2980
a(I726
F0.505879878705104
tp2981
a(I727
F0.5028134092090722
tp2982
a(I728
F0.5191512967932388
tp2983
a(I729
F0.523098161160208
tp2984
a(I745
F0.4778497076086856
tp2985
a(I746
F0.468715383542832
tp2986
a(I747
F0.4531761149410435
tp2987
a(I748
F0.4649412304616539
tp2988
a(I749
F0.4991357160241711
tp2989
a(I750
F0.4644747290193446
tp2990
a(I751
F0.45965904841844346
tp2991
aa(lp2992
(I725
F0.6651505637118581
tp2993
a(I726
F0.6674763683627896
tp2994
a(I727
F0.6678396083127219
tp2995
a(I728
F0.6796834886270278
tp2996
a(I729
F0.6789018828568522
tp2997
a(I745
F0.7107709820479938
tp2998
a(I746
F0.7211154736450994
tp2999
a(I747
F0.7131363426590591
tp3000
a(I748
F0.7122767697962081
tp3001
a(I749
F0.7135191218512258
tp3002
a(I750
F0.7234955267054808
tp3003
a(I751
F0.7224245050769441
tp3004
a(I767
F0.7057521881592596
tp3005
a(I768
F0.7068997627643231
tp3006
a(I769
F0.7087085603593568
tp3007
a(I770
F0.6956006229699323
tp3008
a(I771
F0.7020002002742847
tp3009
a(I772
F0.705210081991362
tp3010
a(I773
F0.6981146902467708
tp3011
aa(lp3012
(I746
F0.685637902419394
tp3013
a(I747
F0.6914336600751584
tp3014
a(I749
F0.691074674755974
tp3015
a(I750
F0.7050597835857583
tp3016
a(I751
F0.7027469495890388
tp3017
a(I767
F0.7231292884398626
tp3018
a(I768
F0.7201607734182904
tp3019
a(I769
F0.7217220690751995
tp3020
a(I770
F0.7156645539157908
tp3021
a(I771
F0.7169150856576599
tp3022
a(I772
F0.7236375978977493
tp3023
a(I773
F0.7265577290571941
tp3024
a(I789
F0.7357063767045874
tp3025
a(I790
F0.7535038675160498
tp3026
a(I791
F0.7513823093465019
tp3027
a(I792
F0.744912566014432
tp3028
a(I793
F0.7427269791015442
tp3029
a(I794
F0.7394636916287521
tp3030
a(I795
F0.7365374890839453
tp3031
aa(lp3032
(I682
F0.8331085256859633
tp3033
a(I701
F0.862484780374782
tp3034
a(I702
F0.8654643251670228
tp3035
a(I703
F0.8712333721194203
tp3036
a(I704
F0.8781734056793772
tp3037
a(I705
F0.8703305064266892
tp3038
a(I706
F0.8629694862075246
tp3039
a(I707
F0.8718823311936014
tp3040
a(I723
F0.8752615246810357
tp3041
a(I724
F0.8756007405137783
tp3042
a(I725
F0.8765805438113101
tp3043
a(I726
F0.872385589580778
tp3044
a(I727
F0.8688016384870899
tp3045
a(I728
F0.8703440464826845
tp3046
a(I729
F0.8741291081754502
tp3047
a(I745
F0.8446114689778195
tp3048
a(I746
F0.8387741944802719
tp3049
a(I747
F0.8365731560375401
tp3050
a(I750
F0.833499620328606
tp3051
aa(lp3052
(I657
F0.6703094242268183
tp3053
a(I658
F0.6819902537498278
tp3054
a(I659
F0.6735458713856933
tp3055
a(I662
F0.6626048660330736
tp3056
a(I663
F0.6782376014782538
tp3057
a(I679
F0.6757430010416691
tp3058
a(I682
F0.6668662292055737
tp3059
a(I683
F0.6727394701295971
tp3060
a(I684
F0.6746917066738436
tp3061
a(I685
F0.664612908550992
tp3062
a(I701
F0.657560474709299
tp3063
a(I702
F0.6732407992088585
tp3064
a(I703
F0.6866820172648923
tp3065
a(I704
F0.6944277153353937
tp3066
a(I705
F0.6868200719405773
tp3067
a(I706
F0.6841179136164991
tp3068
a(I707
F0.6801694613449544
tp3069
a(I725
F0.6610895706239374
tp3070
a(I727
F0.6685822581250904
tp3071
aa(lp3072
(I635
F0.4093603375010257
tp3073
a(I637
F0.40274547909338454
tp3074
a(I638
F0.4085236099354885
tp3075
a(I639
F0.41079212329724357
tp3076
a(I640
F0.41015557459954677
tp3077
a(I641
F0.3986226935477757
tp3078
a(I657
F0.4299671670516328
tp3079
a(I658
F0.43868543058888715
tp3080
a(I659
F0.43621455594942
tp3081
a(I660
F0.429623551955759
tp3082
a(I661
F0.43026061250746567
tp3083
a(I662
F0.44537507349842415
tp3084
a(I663
F0.452928773113629
tp3085
a(I679
F0.4346040184581271
tp3086
a(I680
F0.4259934048243248
tp3087
a(I681
F0.43046924994192437
tp3088
a(I682
F0.44039254254056553
tp3089
a(I683
F0.4233610233066854
tp3090
a(I684
F0.3961780878389644
tp3091
aa(lp3092
(I723
F0.5243332070524613
tp3093
a(I724
F0.488713075778536
tp3094
a(I727
F0.5224248113026574
tp3095
a(I728
F0.5342280594585046
tp3096
a(I729
F0.5153826393446633
tp3097
a(I745
F0.511782376297902
tp3098
a(I746
F0.5071355254858493
tp3099
a(I747
F0.5146595705425255
tp3100
a(I748
F0.5288442248435898
tp3101
a(I749
F0.523749084113361
tp3102
a(I750
F0.5230491438216719
tp3103
a(I751
F0.5161305300216725
tp3104
a(I769
F0.4960485583953208
tp3105
a(I770
F0.5073169669658186
tp3106
a(I789
F0.4919880819737851
tp3107
a(I791
F0.48722966823907865
tp3108
a(I792
F0.49538858280520576
tp3109
a(I793
F0.49777963201019787
tp3110
a(I813
F0.4861191284552958
tp3111
aa(lp3112
(I703
F0.612116777894607
tp3113
a(I704
F0.6215728239655164
tp3114
a(I705
F0.6212315502672905
tp3115
a(I706
F0.6169851026102409
tp3116
a(I707
F0.6127664619754393
tp3117
a(I723
F0.6526069908060464
tp3118
a(I724
F0.6493304611349571
tp3119
a(I725
F0.6548104448675257
tp3120
a(I726
F0.6701312276140754
tp3121
a(I727
F0.6738027906430999
tp3122
a(I728
F0.6832998096011097
tp3123
a(I729
F0.6885797216367144
tp3124
a(I745
F0.6879419252461185
tp3125
a(I746
F0.6900354444369602
tp3126
a(I747
F0.6859328308034974
tp3127
a(I748
F0.6781603237432258
tp3128
a(I749
F0.67551714549658
tp3129
a(I750
F0.6842904135459033
tp3130
a(I751
F0.6855678094031479
tp3131
aa(lp3132
(I723
F0.8731294155912384
tp3133
a(I724
F0.8833293246713345
tp3134
a(I725
F0.8860478414082491
tp3135
a(I726
F0.8894639986250895
tp3136
a(I727
F0.8860937555039908
tp3137
a(I728
F0.8959328130030308
tp3138
a(I729
F0.8977906481513827
tp3139
a(I745
F0.9177834137125259
tp3140
a(I746
F0.9190891536019631
tp3141
a(I747
F0.9136741939163767
tp3142
a(I748
F0.9125527971927824
tp3143
a(I749
F0.9109866360039228
tp3144
a(I750
F0.9127819739961897
tp3145
a(I751
F0.9114762681553457
tp3146
a(I767
F0.8866295043400705
tp3147
a(I768
F0.8886458520187466
tp3148
a(I769
F0.8811609297172692
tp3149
a(I770
F0.8736245884315366
tp3150
a(I771
F0.8711358023292157
tp3151
aa(lp3152
(I657
F0.8664303520787944
tp3153
a(I658
F0.8678301119884093
tp3154
a(I659
F0.8729822822481474
tp3155
a(I660
F0.869204608486607
tp3156
a(I661
F0.8706942328772787
tp3157
a(I662
F0.8739375933828218
tp3158
a(I663
F0.8703019416980371
tp3159
a(I679
F0.8784222825125104
tp3160
a(I680
F0.8795726147427329
tp3161
a(I681
F0.8808266229616126
tp3162
a(I682
F0.8825686880938335
tp3163
a(I683
F0.8738258914915478
tp3164
a(I684
F0.8747229070598938
tp3165
a(I685
F0.8780134290381533
tp3166
a(I701
F0.862480852295283
tp3167
a(I702
F0.863669325941216
tp3168
a(I703
F0.86387974370663
tp3169
a(I704
F0.8576065132497197
tp3170
a(I705
F0.8588071046291665
tp3171
aa(lp3172
(I680
F0.5299191947496994
tp3173
a(I681
F0.536264590221733
tp3174
a(I683
F0.5293602694642474
tp3175
a(I684
F0.5371420917360819
tp3176
a(I685
F0.5346199926927003
tp3177
a(I701
F0.5477751846742471
tp3178
a(I702
F0.5421247048419839
tp3179
a(I703
F0.5476443327708069
tp3180
a(I704
F0.5530809735451765
tp3181
a(I705
F0.5450355298717564
tp3182
a(I706
F0.5415279820452487
tp3183
a(I707
F0.5552641036471495
tp3184
a(I723
F0.5715703744648951
tp3185
a(I724
F0.5671481146980979
tp3186
a(I725
F0.5814766920869944
tp3187
a(I726
F0.5741537527679373
tp3188
a(I727
F0.560910884512592
tp3189
a(I728
F0.5653384516029183
tp3190
a(I729
F0.5651129122302606
tp3191
aa(lp3192
(I703
F0.8270613408729427
tp3193
a(I704
F0.8331961489648188
tp3194
a(I705
F0.8335549884655244
tp3195
a(I706
F0.8465003059868833
tp3196
a(I707
F0.8424277980879273
tp3197
a(I723
F0.8812177537109261
tp3198
a(I724
F0.8864397314349788
tp3199
a(I725
F0.8790711333947683
tp3200
a(I726
F0.8837546744770682
tp3201
a(I727
F0.897784526421842
tp3202
a(I728
F0.8880613954644397
tp3203
a(I729
F0.8968239669082912
tp3204
a(I745
F0.8807726570104423
tp3205
a(I746
F0.8778725231577712
tp3206
a(I747
F0.8782342297468724
tp3207
a(I748
F0.8769554181376432
tp3208
a(I749
F0.8720800418909951
tp3209
a(I750
F0.8750975202632286
tp3210
a(I751
F0.8714308445389934
tp3211
aa(lp3212
(I680
F0.7722026136390375
tp3213
a(I681
F0.76626344566587
tp3214
a(I683
F0.771234426091797
tp3215
a(I684
F0.7783257402030042
tp3216
a(I685
F0.7852400889184672
tp3217
a(I701
F0.8163912199217482
tp3218
a(I702
F0.8230676866030608
tp3219
a(I703
F0.8208212067324261
tp3220
a(I704
F0.8172661233828383
tp3221
a(I705
F0.8232349043909639
tp3222
a(I706
F0.826111683432341
tp3223
a(I707
F0.8254523530075308
tp3224
a(I723
F0.8612374452491328
tp3225
a(I724
F0.8660283269856995
tp3226
a(I725
F0.8636736286496063
tp3227
a(I726
F0.8636431931045161
tp3228
a(I727
F0.8622268413859687
tp3229
a(I728
F0.86333790349751
tp3230
a(I729
F0.8685801708268904
tp3231
aa.